(lp0
(lp1
(lp2
(I1049
I482
tp3
aa(lp4
(I950
I482
tp5
aa(lp6
(I860
I482
tp7
aa(lp8
(I761
I482
tp9
aa(lp10
(I671
I482
tp11
aa(lp12
(I572
I482
tp13
aa(lp14
(I482
I482
tp15
aa(lp16
(I383
I482
tp17
aa(lp18
(I284
I482
tp19
aa(lp20
(I194
I482
tp21
a(I1040
I154
tp22
aa(lp23
(I95
I482
tp24
a(I941
I154
tp25
aa(lp26
(I5
I482
tp27
a(I851
I154
tp28
aa(lp29
(I-94
I482
tp30
a(I752
I154
tp31
aa(lp32
(I653
I154
tp33
aa(lp34
(I563
I154
tp35
aa(lp36
(I464
I154
tp37
aa(lp38
(I374
I154
tp39
aa(lp40
(I275
I154
tp41
aa(lp42
(I185
I154
tp43
aa(lp44
(I1022
I440
tp45
a(I86
I154
tp46
aa(lp47
(I932
I440
tp48
a(I-4
I154
tp49
aa(lp50
(I833
I440
tp51
a(I-103
I154
tp52
aa(lp53
(I734
I440
tp54
aa(lp55
(I644
I440
tp56
aa(lp57
(I545
I440
tp58
aa(lp59
(I455
I440
tp60
aa(lp61
(I356
I440
tp62
aa(lp63
(I266
I440
tp64
aa(lp65
(I167
I440
tp66
aa(lp67
(I77
I440
tp68
a(I1013
I146
tp69
aa(lp70
(I-22
I440
tp71
a(I914
I146
tp72
aa(lp73
(I-121
I440
tp74
a(I815
I146
tp75
aa(lp76
(I725
I146
tp77
aa(lp78
(I626
I146
tp79
aa(lp80
(I536
I146
tp81
aa(lp82
(I437
I146
tp83
aa(lp84
(I347
I146
tp85
aa(lp86
(I248
I146
tp87
aa(lp88
(I158
I146
tp89
aa(lp90
(I986
I463
tp91
a(I59
I146
tp92
aa(lp93
(I896
I463
tp94
a(I-31
I146
tp95
aa(lp96
(I797
I463
tp97
a(I-130
I146
tp98
aa(lp99
(I698
I463
tp100
aa(lp101
(I608
I463
tp102
aa(lp103
(I509
I463
tp104
aa(lp105
(I419
I463
tp106
aa(lp107
(I320
I463
tp108
aa(lp109
(I221
I463
tp110
aa(lp111
(I131
I463
tp112
aa(lp113
(I32
I463
tp114
a(I968
I293
tp115
aa(lp116
(I-58
I463
tp117
a(I878
I293
tp118
aa(lp119
(I779
I293
tp120
aa(lp121
(I680
I293
tp122
aa(lp123
(I590
I293
tp124
aa(lp125
(I491
I293
tp126
aa(lp127
(I401
I293
tp128
aa(lp129
(I302
I293
tp130
aa(lp131
(I203
I293
tp132
aa(lp133
(I1058
I357
tp134
a(I113
I293
tp135
aa(lp136
(I959
I357
tp137
a(I14
I293
tp138
aa(lp139
(I869
I357
tp140
a(I-76
I293
tp141
aa(lp142
(I770
I357
tp143
aa(lp144
(I680
I357
tp145
aa(lp146
(I581
I357
tp147
aa(lp148
(I491
I357
tp149
aa(lp150
(I392
I357
tp151
aa(lp152
(I302
I357
tp153
aa(lp154
(I203
I357
tp155
aa(lp156
(I104
I357
tp157
a(I1031
I510
tp158
aa(lp159
(I14
I357
tp160
a(I941
I510
tp161
aa(lp162
(I-85
I357
tp163
a(I842
I510
tp164
aa(lp165
(I752
I510
tp166
aa(lp167
(I653
I510
tp168
aa(lp169
(I554
I510
tp170
aa(lp171
(I464
I510
tp172
aa(lp173
(I365
I510
tp174
aa(lp175
(I275
I510
tp176
aa(lp177
(I176
I510
tp178
aa(lp179
(I1022
I337
tp180
a(I86
I510
tp181
aa(lp182
(I923
I337
tp183
a(I-13
I510
tp184
aa(lp185
(I833
I337
tp186
a(I-103
I510
tp187
aa(lp188
(I734
I337
tp189
aa(lp190
(I644
I337
tp191
aa(lp192
(I545
I337
tp193
aa(lp194
(I446
I337
tp195
aa(lp196
(I356
I337
tp197
aa(lp198
(I257
I337
tp199
aa(lp200
(I167
I337
tp201
aa(lp202
(I68
I337
tp203
a(I1004
I320
tp204
aa(lp205
(I-22
I337
tp206
a(I914
I320
tp207
aa(lp208
(I-121
I337
tp209
a(I815
I320
tp210
aa(lp211
(I725
I320
tp212
aa(lp213
(I626
I320
tp214
aa(lp215
(I527
I320
tp216
aa(lp217
(I437
I320
tp218
aa(lp219
(I338
I320
tp220
aa(lp221
(I248
I320
tp222
aa(lp223
(I149
I320
tp224
aa(lp225
(I977
I199
tp226
a(I50
I320
tp227
aa(lp228
(I887
I199
tp229
a(I-40
I320
tp230
aa(lp231
(I788
I199
tp232
a(I-139
I320
tp233
aa(lp234
(I698
I199
tp235
aa(lp236
(I599
I199
tp237
aa(lp238
(I509
I199
tp239
aa(lp240
(I410
I199
tp241
aa(lp242
(I320
I199
tp243
aa(lp244
(I221
I199
tp245
aa(lp246
(I122
I199
tp247
aa(lp248
(I32
I199
tp249
a(I968
I238
tp250
aa(lp251
(I-67
I199
tp252
a(I869
I238
tp253
aa(lp254
(I779
I238
tp255
aa(lp256
(I680
I238
tp257
aa(lp258
(I590
I238
tp259
aa(lp260
(I491
I238
tp261
aa(lp262
(I392
I238
tp263
aa(lp264
(I302
I238
tp265
aa(lp266
(I203
I238
tp267
aa(lp268
(I1049
I170
tp269
a(I113
I238
tp270
aa(lp271
(I950
I170
tp272
a(I14
I238
tp273
aa(lp274
(I860
I170
tp275
a(I-76
I238
tp276
aa(lp277
(I761
I170
tp278
aa(lp279
(I671
I170
tp280
aa(lp281
(I572
I170
tp282
aa(lp283
(I473
I170
tp284
aa(lp285
(I383
I170
tp286
aa(lp287
(I284
I170
tp288
aa(lp289
(I194
I170
tp290
aa(lp291
(I95
I170
tp292
a(I1031
I326
tp293
aa(lp294
(I5
I170
tp295
a(I941
I326
tp296
aa(lp297
(I-94
I170
tp298
a(I842
I326
tp299
aa(lp300
(I743
I326
tp301
aa(lp302
(I653
I326
tp303
aa(lp304
(I554
I326
tp305
aa(lp306
(I464
I326
tp307
aa(lp308
(I365
I326
tp309
aa(lp310
(I275
I326
tp311
aa(lp312
(I176
I326
tp313
aa(lp314
(I1013
I257
tp315
a(I86
I326
tp316
aa(lp317
(I914
I257
tp318
a(I-13
I326
tp319
aa(lp320
(I815
I257
tp321
a(I-112
I326
tp322
aa(lp323
(I725
I257
tp324
aa(lp325
(I626
I257
tp326
aa(lp327
(I536
I257
tp328
aa(lp329
(I437
I257
tp330
aa(lp331
(I338
I257
tp332
aa(lp333
(I248
I257
tp334
aa(lp335
(I149
I257
tp336
aa(lp337
(I59
I257
tp338
a(I995
I459
tp339
aa(lp340
(I-40
I257
tp341
a(I896
I459
tp342
aa(lp343
(I-130
I257
tp344
a(I806
I459
tp345
aa(lp346
(I707
I459
tp347
aa(lp348
(I617
I459
tp349
aa(lp350
(I518
I459
tp351
aa(lp352
(I419
I459
tp353
aa(lp354
(I329
I459
tp355
aa(lp356
(I230
I459
tp357
aa(lp358
(I140
I459
tp359
aa(lp360
(I977
I437
tp361
a(I41
I459
tp362
aa(lp363
(I878
I437
tp364
a(I-58
I459
tp365
aa(lp366
(I788
I437
tp367
aa(lp368
(I698
I437
tp369
aa(lp370
(I599
I437
tp371
aa(lp372
(I500
I437
tp373
aa(lp374
(I410
I437
tp375
aa(lp376
(I311
I437
tp377
aa(lp378
(I221
I437
tp379
aa(lp380
(I122
I437
tp381
aa(lp382
(I23
I437
tp383
a(I959
I210
tp384
aa(lp385
(I-67
I437
tp386
a(I869
I210
tp387
aa(lp388
(I770
I210
tp389
aa(lp390
(I680
I210
tp391
aa(lp392
(I581
I210
tp393
aa(lp394
(I491
I210
tp395
aa(lp396
(I392
I210
tp397
aa(lp398
(I293
I210
tp399
aa(lp400
(I203
I210
tp401
aa(lp402
(I1040
I323
tp403
a(I104
I210
tp404
aa(lp405
(I950
I323
tp406
a(I14
I210
tp407
aa(lp408
(I851
I323
tp409
a(I-85
I210
tp410
aa(lp411
(I761
I323
tp412
aa(lp413
(I662
I323
tp414
aa(lp415
(I572
I323
tp416
aa(lp417
(I473
I323
tp418
aa(lp419
(I383
I323
tp420
aa(lp421
(I284
I323
tp422
aa(lp423
(I185
I323
tp424
aa(lp425
(I95
I323
tp426
a(I1022
I465
tp427
aa(lp428
(I-4
I323
tp429
a(I923
I465
tp430
aa(lp431
(I-103
I323
tp432
a(I824
I465
tp433
aa(lp434
(I734
I465
tp435
aa(lp436
(I635
I465
tp437
aa(lp438
(I545
I465
tp439
aa(lp440
(I446
I465
tp441
aa(lp442
(I356
I465
tp443
aa(lp444
(I257
I465
tp445
aa(lp446
(I167
I465
tp447
aa(lp448
(I1004
I380
tp449
a(I68
I465
tp450
aa(lp451
(I914
I380
tp452
a(I-22
I465
tp453
aa(lp454
(I815
I380
tp455
a(I-121
I465
tp456
aa(lp457
(I716
I380
tp458
aa(lp459
(I626
I380
tp460
aa(lp461
(I527
I380
tp462
aa(lp463
(I437
I380
tp464
aa(lp465
(I338
I380
tp466
aa(lp467
(I248
I380
tp468
aa(lp469
(I149
I380
tp470
aa(lp471
(I50
I380
tp472
a(I986
I418
tp473
aa(lp474
(I-40
I380
tp475
a(I896
I418
tp476
aa(lp477
(I-139
I380
tp478
a(I797
I418
tp479
aa(lp480
(I707
I418
tp481
aa(lp482
(I608
I418
tp483
aa(lp484
(I509
I418
tp485
aa(lp486
(I419
I418
tp487
aa(lp488
(I320
I418
tp489
aa(lp490
(I230
I418
tp491
aa(lp492
(I131
I418
tp493
aa(lp494
(I977
I510
tp495
a(I41
I418
tp496
aa(lp497
(I878
I510
tp498
a(I-58
I418
tp499
aa(lp500
(I779
I510
tp501
aa(lp502
(I689
I510
tp503
aa(lp504
(I590
I510
tp505
aa(lp506
(I500
I510
tp507
aa(lp508
(I401
I510
tp509
aa(lp510
(I311
I510
tp511
aa(lp512
(I212
I510
tp513
aa(lp514
(I122
I510
tp515
a(I1058
I335
tp516
aa(lp517
(I23
I510
tp518
a(I959
I335
tp519
aa(lp520
(I-76
I510
tp521
a(I860
I335
tp522
aa(lp523
(I770
I335
tp524
aa(lp525
(I671
I335
tp526
aa(lp527
(I572
I335
tp528
aa(lp529
(I482
I335
tp530
aa(lp531
(I383
I335
tp532
aa(lp533
(I293
I335
tp534
aa(lp535
(I194
I335
tp536
aa(lp537
(I1040
I450
tp538
a(I104
I335
tp539
aa(lp540
(I941
I450
tp541
a(I5
I335
tp542
aa(lp543
(I842
I450
tp544
a(I-94
I335
tp545
aa(lp546
(I752
I450
tp547
aa(lp548
(I653
I450
tp549
aa(lp550
(I563
I450
tp551
aa(lp552
(I464
I450
tp553
aa(lp554
(I374
I450
tp555
aa(lp556
(I275
I450
tp557
aa(lp558
(I185
I450
tp559
aa(lp560
(I86
I450
tp561
a(I1013
I271
tp562
aa(lp563
(I-13
I450
tp564
a(I914
I271
tp565
aa(lp566
(I-103
I450
tp567
a(I824
I271
tp568
aa(lp569
(I725
I271
tp570
aa(lp571
(I635
I271
tp572
aa(lp573
(I536
I271
tp574
aa(lp575
(I446
I271
tp576
aa(lp577
(I347
I271
tp578
aa(lp579
(I248
I271
tp580
aa(lp581
(I158
I271
tp582
aa(lp583
(I995
I271
tp584
a(I59
I271
tp585
aa(lp586
(I905
I271
tp587
a(I-31
I271
tp588
aa(lp589
(I806
I271
tp590
a(I-130
I271
tp591
aa(lp592
(I716
I271
tp593
aa(lp594
(I617
I271
tp595
aa(lp596
(I527
I271
tp597
aa(lp598
(I428
I271
tp599
aa(lp600
(I329
I271
tp601
aa(lp602
(I239
I271
tp603
aa(lp604
(I140
I271
tp605
aa(lp606
(I50
I271
tp607
a(I986
I330
tp608
aa(lp609
(I-49
I271
tp610
a(I887
I330
tp611
aa(lp612
(I-139
I271
tp613
a(I797
I330
tp614
aa(lp615
(I698
I330
tp616
aa(lp617
(I608
I330
tp618
aa(lp619
(I509
I330
tp620
aa(lp621
(I410
I330
tp622
aa(lp623
(I320
I330
tp624
aa(lp625
(I221
I330
tp626
aa(lp627
(I131
I330
tp628
aa(lp629
(I968
I287
tp630
a(I32
I330
tp631
aa(lp632
(I869
I287
tp633
a(I-67
I330
tp634
aa(lp635
(I779
I287
tp636
aa(lp637
(I680
I287
tp638
aa(lp639
(I590
I287
tp640
aa(lp641
(I491
I287
tp642
aa(lp643
(I401
I287
tp644
aa(lp645
(I302
I287
tp646
aa(lp647
(I212
I287
tp648
aa(lp649
(I113
I287
tp650
a(I1049
I141
tp651
aa(lp652
(I14
I287
tp653
a(I950
I141
tp654
aa(lp655
(I-76
I287
tp656
a(I860
I141
tp657
aa(lp658
(I761
I141
tp659
aa(lp660
(I662
I141
tp661
aa(lp662
(I572
I141
tp663
aa(lp664
(I473
I141
tp665
aa(lp666
(I383
I141
tp667
aa(lp668
(I284
I141
tp669
aa(lp670
(I194
I141
tp671
aa(lp672
(I1031
I320
tp673
a(I95
I141
tp674
aa(lp675
(I932
I320
tp676
a(I-4
I141
tp677
aa(lp678
(I842
I320
tp679
a(I-94
I141
tp680
aa(lp681
(I743
I320
tp682
aa(lp683
(I653
I320
tp684
aa(lp685
(I554
I320
tp686
aa(lp687
(I464
I320
tp688
aa(lp689
(I365
I320
tp690
aa(lp691
(I266
I320
tp692
aa(lp693
(I176
I320
tp694
aa(lp695
(I77
I320
tp696
a(I1013
I495
tp697
aa(lp698
(I-13
I320
tp699
a(I923
I495
tp700
aa(lp701
(I-112
I320
tp702
a(I824
I495
tp703
aa(lp704
(I734
I495
tp705
aa(lp706
(I635
I495
tp707
aa(lp708
(I536
I495
tp709
aa(lp710
(I446
I495
tp711
aa(lp712
(I347
I495
tp713
aa(lp714
(I257
I495
tp715
aa(lp716
(I158
I495
tp717
aa(lp718
(I995
I234
tp719
a(I68
I495
tp720
aa(lp721
(I896
I234
tp722
a(I-31
I495
tp723
aa(lp724
(I806
I234
tp725
a(I-121
I495
tp726
aa(lp727
(I707
I234
tp728
aa(lp729
(I617
I234
tp730
aa(lp731
(I518
I234
tp732
aa(lp733
(I428
I234
tp734
aa(lp735
(I329
I234
tp736
aa(lp737
(I239
I234
tp738
aa(lp739
(I140
I234
tp740
aa(lp741
(I50
I234
tp742
a(I986
I435
tp743
aa(lp744
(I-49
I234
tp745
a(I887
I435
tp746
aa(lp747
(I788
I435
tp748
aa(lp749
(I698
I435
tp750
aa(lp751
(I599
I435
tp752
aa(lp753
(I509
I435
tp754
aa(lp755
(I410
I435
tp756
aa(lp757
(I311
I435
tp758
aa(lp759
(I221
I435
tp760
aa(lp761
(I122
I435
tp762
aa(lp763
(I968
I156
tp764
a(I32
I435
tp765
aa(lp766
(I869
I156
tp767
a(I-67
I435
tp768
aa(lp769
(I779
I156
tp770
aa(lp771
(I680
I156
tp772
aa(lp773
(I581
I156
tp774
aa(lp775
(I491
I156
tp776
aa(lp777
(I392
I156
tp778
aa(lp779
(I302
I156
tp780
aa(lp781
(I203
I156
tp782
aa(lp783
(I113
I156
tp784
a(I1049
I186
tp785
aa(lp786
(I14
I156
tp787
a(I950
I186
tp788
aa(lp789
(I-76
I156
tp790
a(I860
I186
tp791
aa(lp792
(I761
I186
tp793
aa(lp794
(I662
I186
tp795
aa(lp796
(I572
I186
tp797
aa(lp798
(I473
I186
tp799
aa(lp800
(I374
I186
tp801
aa(lp802
(I284
I186
tp803
aa(lp804
(I185
I186
tp805
aa(lp806
(I1022
I147
tp807
a(I95
I186
tp808
aa(lp809
(I923
I147
tp810
a(I-4
I186
tp811
aa(lp812
(I833
I147
tp813
a(I-94
I186
tp814
aa(lp815
(I734
I147
tp816
aa(lp817
(I635
I147
tp818
aa(lp819
(I545
I147
tp820
aa(lp821
(I446
I147
tp822
aa(lp823
(I356
I147
tp824
aa(lp825
(I257
I147
tp826
aa(lp827
(I167
I147
tp828
aa(lp829
(I68
I147
tp830
a(I1004
I219
tp831
aa(lp832
(I-22
I147
tp833
a(I914
I219
tp834
aa(lp835
(I-121
I147
tp836
a(I815
I219
tp837
aa(lp838
(I725
I219
tp839
aa(lp840
(I626
I219
tp841
aa(lp842
(I527
I219
tp843
aa(lp844
(I437
I219
tp845
aa(lp846
(I338
I219
tp847
aa(lp848
(I248
I219
tp849
aa(lp850
(I149
I219
tp851
aa(lp852
(I995
I429
tp853
a(I59
I219
tp854
aa(lp855
(I896
I429
tp856
a(I-40
I219
tp857
aa(lp858
(I797
I429
tp859
a(I-139
I219
tp860
aa(lp861
(I707
I429
tp862
aa(lp863
(I617
I429
tp864
aa(lp865
(I518
I429
tp866
aa(lp867
(I419
I429
tp868
aa(lp869
(I329
I429
tp870
aa(lp871
(I230
I429
tp872
aa(lp873
(I140
I429
tp874
aa(lp875
(I41
I429
tp876
a(I977
I449
tp877
aa(lp878
(I-58
I429
tp879
a(I878
I449
tp880
aa(lp881
(I788
I449
tp882
aa(lp883
(I689
I449
tp884
aa(lp885
(I599
I449
tp886
aa(lp887
(I500
I449
tp888
aa(lp889
(I410
I449
tp890
aa(lp891
(I311
I449
tp892
aa(lp893
(I221
I449
tp894
aa(lp895
(I1049
I217
tp896
a(I122
I449
tp897
aa(lp898
(I959
I217
tp899
a(I32
I449
tp900
aa(lp901
(I860
I217
tp902
a(I-67
I449
tp903
aa(lp904
(I761
I217
tp905
aa(lp906
(I671
I217
tp907
aa(lp908
(I572
I217
tp909
aa(lp910
(I482
I217
tp911
aa(lp912
(I383
I217
tp913
aa(lp914
(I284
I217
tp915
aa(lp916
(I194
I217
tp917
aa(lp918
(I104
I217
tp919
a(I1040
I471
tp920
aa(lp921
(I5
I217
tp922
a(I941
I471
tp923
aa(lp924
(I-85
I217
tp925
a(I851
I471
tp926
aa(lp927
(I752
I471
tp928
aa(lp929
(I653
I471
tp930
aa(lp931
(I563
I471
tp932
aa(lp933
(I464
I471
tp934
aa(lp935
(I374
I471
tp936
aa(lp937
(I275
I471
tp938
aa(lp939
(I176
I471
tp940
aa(lp941
(I1022
I253
tp942
a(I86
I471
tp943
aa(lp944
(I923
I253
tp945
a(I-13
I471
tp946
aa(lp947
(I833
I253
tp948
a(I-103
I471
tp949
aa(lp950
(I734
I253
tp951
aa(lp952
(I635
I253
tp953
aa(lp954
(I545
I253
tp955
aa(lp956
(I446
I253
tp957
aa(lp958
(I356
I253
tp959
aa(lp960
(I257
I253
tp961
aa(lp962
(I167
I253
tp963
aa(lp964
(I68
I253
tp965
a(I1004
I476
tp966
aa(lp967
(I-31
I253
tp968
a(I905
I476
tp969
aa(lp970
(I-121
I253
tp971
a(I815
I476
tp972
aa(lp973
(I716
I476
tp974
aa(lp975
(I626
I476
tp976
aa(lp977
(I527
I476
tp978
aa(lp979
(I437
I476
tp980
aa(lp981
(I338
I476
tp982
aa(lp983
(I248
I476
tp984
aa(lp985
(I149
I476
tp986
aa(lp987
(I986
I374
tp988
a(I59
I476
tp989
aa(lp990
(I887
I374
tp991
a(I-40
I476
tp992
aa(lp993
(I797
I374
tp994
a(I-130
I476
tp995
aa(lp996
(I698
I374
tp997
aa(lp998
(I608
I374
tp999
aa(lp1000
(I509
I374
tp1001
aa(lp1002
(I410
I374
tp1003
aa(lp1004
(I320
I374
tp1005
aa(lp1006
(I221
I374
tp1007
aa(lp1008
(I131
I374
tp1009
aa(lp1010
(I32
I374
tp1011
a(I968
I158
tp1012
aa(lp1013
(I-58
I374
tp1014
a(I878
I158
tp1015
aa(lp1016
(I779
I158
tp1017
aa(lp1018
(I689
I158
tp1019
aa(lp1020
(I590
I158
tp1021
aa(lp1022
(I491
I158
tp1023
aa(lp1024
(I401
I158
tp1025
aa(lp1026
(I302
I158
tp1027
aa(lp1028
(I212
I158
tp1029
aa(lp1030
(I1049
I459
tp1031
a(I113
I158
tp1032
aa(lp1033
(I950
I459
tp1034
a(I14
I158
tp1035
aa(lp1036
(I860
I459
tp1037
a(I-76
I158
tp1038
aa(lp1039
(I761
I459
tp1040
aa(lp1041
(I671
I459
tp1042
aa(lp1043
(I572
I459
tp1044
aa(lp1045
(I473
I459
tp1046
aa(lp1047
(I383
I459
tp1048
aa(lp1049
(I284
I459
tp1050
aa(lp1051
(I194
I459
tp1052
aa(lp1053
(I95
I459
tp1054
a(I1031
I220
tp1055
aa(lp1056
(I5
I459
tp1057
a(I941
I220
tp1058
aa(lp1059
(I-94
I459
tp1060
a(I842
I220
tp1061
aa(lp1062
(I743
I220
tp1063
aa(lp1064
(I653
I220
tp1065
aa(lp1066
(I554
I220
tp1067
aa(lp1068
(I464
I220
tp1069
aa(lp1070
(I365
I220
tp1071
aa(lp1072
(I266
I220
tp1073
aa(lp1074
(I176
I220
tp1075
aa(lp1076
(I1013
I374
tp1077
a(I77
I220
tp1078
aa(lp1079
(I923
I374
tp1080
a(I-13
I220
tp1081
aa(lp1082
(I824
I374
tp1083
a(I-112
I220
tp1084
aa(lp1085
(I734
I374
tp1086
aa(lp1087
(I635
I374
tp1088
aa(lp1089
(I536
I374
tp1090
aa(lp1091
(I446
I374
tp1092
aa(lp1093
(I347
I374
tp1094
aa(lp1095
(I257
I374
tp1096
aa(lp1097
(I158
I374
tp1098
aa(lp1099
(I68
I374
tp1100
a(I995
I255
tp1101
aa(lp1102
(I-31
I374
tp1103
a(I896
I255
tp1104
aa(lp1105
(I-121
I374
tp1106
a(I806
I255
tp1107
aa(lp1108
(I707
I255
tp1109
aa(lp1110
(I617
I255
tp1111
aa(lp1112
(I518
I255
tp1113
aa(lp1114
(I428
I255
tp1115
aa(lp1116
(I329
I255
tp1117
aa(lp1118
(I230
I255
tp1119
aa(lp1120
(I140
I255
tp1121
aa(lp1122
(I977
I484
tp1123
a(I41
I255
tp1124
aa(lp1125
(I887
I484
tp1126
a(I-49
I255
tp1127
aa(lp1128
(I788
I484
tp1129
aa(lp1130
(I698
I484
tp1131
aa(lp1132
(I599
I484
tp1133
aa(lp1134
(I500
I484
tp1135
aa(lp1136
(I410
I484
tp1137
aa(lp1138
(I311
I484
tp1139
aa(lp1140
(I221
I484
tp1141
aa(lp1142
(I122
I484
tp1143
aa(lp1144
(I32
I484
tp1145
a(I968
I140
tp1146
aa(lp1147
(I-67
I484
tp1148
a(I869
I140
tp1149
aa(lp1150
(I779
I140
tp1151
aa(lp1152
(I680
I140
tp1153
aa(lp1154
(I590
I140
tp1155
aa(lp1156
(I491
I140
tp1157
aa(lp1158
(I401
I140
tp1159
aa(lp1160
(I302
I140
tp1161
aa(lp1162
(I203
I140
tp1163
aa(lp1164
(I1040
I398
tp1165
a(I113
I140
tp1166
aa(lp1167
(I941
I398
tp1168
a(I14
I140
tp1169
aa(lp1170
(I851
I398
tp1171
a(I-76
I140
tp1172
aa(lp1173
(I752
I398
tp1174
aa(lp1175
(I662
I398
tp1176
aa(lp1177
(I563
I398
tp1178
aa(lp1179
(I473
I398
tp1180
aa(lp1181
(I374
I398
tp1182
aa(lp1183
(I284
I398
tp1184
aa(lp1185
(I185
I398
tp1186
aa(lp1187
(I95
I398
tp1188
a(I1031
I133
tp1189
aa(lp1190
(I-4
I398
tp1191
a(I932
I133
tp1192
aa(lp1193
(I-103
I398
tp1194
a(I833
I133
tp1195
aa(lp1196
(I743
I133
tp1197
aa(lp1198
(I644
I133
tp1199
aa(lp1200
(I554
I133
tp1201
aa(lp1202
(I455
I133
tp1203
aa(lp1204
(I365
I133
tp1205
aa(lp1206
(I266
I133
tp1207
aa(lp1208
(I167
I133
tp1209
aa(lp1210
(I1004
I149
tp1211
a(I77
I133
tp1212
aa(lp1213
(I914
I149
tp1214
a(I-13
I133
tp1215
aa(lp1216
(I815
I149
tp1217
a(I-112
I133
tp1218
aa(lp1219
(I716
I149
tp1220
aa(lp1221
(I626
I149
tp1222
aa(lp1223
(I527
I149
tp1224
aa(lp1225
(I437
I149
tp1226
aa(lp1227
(I338
I149
tp1228
aa(lp1229
(I248
I149
tp1230
aa(lp1231
(I149
I149
tp1232
aa(lp1233
(I50
I149
tp1234
a(I986
I328
tp1235
aa(lp1236
(I-40
I149
tp1237
a(I896
I328
tp1238
aa(lp1239
(I-139
I149
tp1240
a(I797
I328
tp1241
aa(lp1242
(I707
I328
tp1243
aa(lp1244
(I608
I328
tp1245
aa(lp1246
(I518
I328
tp1247
aa(lp1248
(I419
I328
tp1249
aa(lp1250
(I320
I328
tp1251
aa(lp1252
(I230
I328
tp1253
aa(lp1254
(I131
I328
tp1255
aa(lp1256
(I977
I422
tp1257
a(I41
I328
tp1258
aa(lp1259
(I878
I422
tp1260
a(I-58
I328
tp1261
aa(lp1262
(I788
I422
tp1263
aa(lp1264
(I689
I422
tp1265
aa(lp1266
(I590
I422
tp1267
aa(lp1268
(I500
I422
tp1269
aa(lp1270
(I401
I422
tp1271
aa(lp1272
(I311
I422
tp1273
aa(lp1274
(I212
I422
tp1275
aa(lp1276
(I122
I422
tp1277
a(I1058
I349
tp1278
aa(lp1279
(I23
I422
tp1280
a(I959
I349
tp1281
aa(lp1282
(I-67
I422
tp1283
a(I869
I349
tp1284
aa(lp1285
(I770
I349
tp1286
aa(lp1287
(I671
I349
tp1288
aa(lp1289
(I581
I349
tp1290
aa(lp1291
(I482
I349
tp1292
aa(lp1293
(I392
I349
tp1294
aa(lp1295
(I293
I349
tp1296
aa(lp1297
(I194
I349
tp1298
aa(lp1299
(I1040
I191
tp1300
a(I104
I349
tp1301
aa(lp1302
(I941
I191
tp1303
a(I5
I349
tp1304
aa(lp1305
(I842
I191
tp1306
a(I-94
I349
tp1307
aa(lp1308
(I752
I191
tp1309
aa(lp1310
(I653
I191
tp1311
aa(lp1312
(I563
I191
tp1313
aa(lp1314
(I464
I191
tp1315
aa(lp1316
(I374
I191
tp1317
aa(lp1318
(I275
I191
tp1319
aa(lp1320
(I176
I191
tp1321
aa(lp1322
(I86
I191
tp1323
a(I1022
I212
tp1324
aa(lp1325
(I-13
I191
tp1326
a(I923
I212
tp1327
aa(lp1328
(I-103
I191
tp1329
a(I833
I212
tp1330
aa(lp1331
(I734
I212
tp1332
aa(lp1333
(I644
I212
tp1334
aa(lp1335
(I545
I212
tp1336
aa(lp1337
(I446
I212
tp1338
aa(lp1339
(I356
I212
tp1340
aa(lp1341
(I257
I212
tp1342
aa(lp1343
(I167
I212
tp1344
aa(lp1345
(I1004
I288
tp1346
a(I68
I212
tp1347
aa(lp1348
(I914
I288
tp1349
a(I-22
I212
tp1350
aa(lp1351
(I815
I288
tp1352
a(I-121
I212
tp1353
aa(lp1354
(I725
I288
tp1355
aa(lp1356
(I626
I288
tp1357
aa(lp1358
(I527
I288
tp1359
aa(lp1360
(I437
I288
tp1361
aa(lp1362
(I338
I288
tp1363
aa(lp1364
(I248
I288
tp1365
aa(lp1366
(I149
I288
tp1367
aa(lp1368
(I59
I288
tp1369
a(I986
I496
tp1370
aa(lp1371
(I-40
I288
tp1372
a(I887
I496
tp1373
aa(lp1374
(I-130
I288
tp1375
a(I797
I496
tp1376
aa(lp1377
(I698
I496
tp1378
aa(lp1379
(I599
I496
tp1380
aa(lp1381
(I509
I496
tp1382
aa(lp1383
(I410
I496
tp1384
aa(lp1385
(I320
I496
tp1386
aa(lp1387
(I221
I496
tp1388
aa(lp1389
(I131
I496
tp1390
aa(lp1391
(I968
I442
tp1392
a(I32
I496
tp1393
aa(lp1394
(I869
I442
tp1395
a(I-67
I496
tp1396
aa(lp1397
(I779
I442
tp1398
aa(lp1399
(I680
I442
tp1400
aa(lp1401
(I590
I442
tp1402
aa(lp1403
(I491
I442
tp1404
aa(lp1405
(I401
I442
tp1406
aa(lp1407
(I302
I442
tp1408
aa(lp1409
(I212
I442
tp1410
aa(lp1411
(I113
I442
tp1412
a(I1049
I229
tp1413
aa(lp1414
(I23
I442
tp1415
a(I959
I229
tp1416
aa(lp1417
(I-76
I442
tp1418
a(I860
I229
tp1419
aa(lp1420
(I770
I229
tp1421
aa(lp1422
(I671
I229
tp1423
aa(lp1424
(I572
I229
tp1425
aa(lp1426
(I482
I229
tp1427
aa(lp1428
(I383
I229
tp1429
aa(lp1430
(I293
I229
tp1431
aa(lp1432
(I194
I229
tp1433
aa(lp1434
(I1031
I508
tp1435
a(I104
I229
tp1436
aa(lp1437
(I932
I508
tp1438
a(I5
I229
tp1439
aa(lp1440
(I842
I508
tp1441
a(I-85
I229
tp1442
aa(lp1443
(I743
I508
tp1444
aa(lp1445
(I644
I508
tp1446
aa(lp1447
(I554
I508
tp1448
aa(lp1449
(I455
I508
tp1450
aa(lp1451
(I356
I508
tp1452
aa(lp1453
(I266
I508
tp1454
aa(lp1455
(I167
I508
tp1456
aa(lp1457
(I77
I508
tp1458
a(I1013
I358
tp1459
aa(lp1460
(I-22
I508
tp1461
a(I914
I358
tp1462
aa(lp1463
(I-112
I508
tp1464
a(I824
I358
tp1465
aa(lp1466
(I725
I358
tp1467
aa(lp1468
(I635
I358
tp1469
aa(lp1470
(I536
I358
tp1471
aa(lp1472
(I437
I358
tp1473
aa(lp1474
(I347
I358
tp1475
aa(lp1476
(I248
I358
tp1477
aa(lp1478
(I158
I358
tp1479
aa(lp1480
(I995
I328
tp1481
a(I59
I358
tp1482
aa(lp1483
(I905
I328
tp1484
a(I-31
I358
tp1485
aa(lp1486
(I806
I328
tp1487
a(I-130
I358
tp1488
aa(lp1489
(I707
I328
tp1490
aa(lp1491
(I617
I328
tp1492
aa(lp1493
(I518
I328
tp1494
aa(lp1495
(I428
I328
tp1496
aa(lp1497
(I329
I328
tp1498
aa(lp1499
(I239
I328
tp1500
aa(lp1501
(I140
I328
tp1502
aa(lp1503
(I50
I328
tp1504
a(I986
I250
tp1505
aa(lp1506
(I-49
I328
tp1507
a(I887
I250
tp1508
aa(lp1509
(I788
I250
tp1510
aa(lp1511
(I698
I250
tp1512
aa(lp1513
(I599
I250
tp1514
aa(lp1515
(I509
I250
tp1516
aa(lp1517
(I410
I250
tp1518
aa(lp1519
(I320
I250
tp1520
aa(lp1521
(I221
I250
tp1522
aa(lp1523
(I1004
I353
tp1524
aa(lp1525
(I914
I353
tp1526
aa(lp1527
(I815
I353
tp1528
aa(lp1529
(I716
I353
tp1530
aa(lp1531
(I626
I353
tp1532
aa(lp1533
(I527
I353
tp1534
aa(lp1535
(I437
I353
tp1536
aa(lp1537
(I338
I353
tp1538
aa(lp1539
(I248
I353
tp1540
aa(lp1541
(I149
I353
tp1542
a(I1040
I252
tp1543
aa(lp1544
(I59
I353
tp1545
a(I950
I252
tp1546
aa(lp1547
(I-40
I353
tp1548
a(I851
I252
tp1549
aa(lp1550
(I-130
I353
tp1551
a(I761
I252
tp1552
aa(lp1553
(I662
I252
tp1554
aa(lp1555
(I563
I252
tp1556
aa(lp1557
(I473
I252
tp1558
aa(lp1559
(I374
I252
tp1560
aa(lp1561
(I284
I252
tp1562
aa(lp1563
(I185
I252
tp1564
aa(lp1565
(I1022
I465
tp1566
a(I95
I252
tp1567
aa(lp1568
(I923
I465
tp1569
a(I-4
I252
tp1570
aa(lp1571
(I833
I465
tp1572
a(I-94
I252
tp1573
aa(lp1574
(I734
I465
tp1575
aa(lp1576
(I644
I465
tp1577
aa(lp1578
(I545
I465
tp1579
aa(lp1580
(I455
I465
tp1581
aa(lp1582
(I356
I465
tp1583
aa(lp1584
(I257
I465
tp1585
aa(lp1586
(I167
I465
tp1587
aa(lp1588
(I68
I465
tp1589
a(I1004
I424
tp1590
aa(lp1591
(I-22
I465
tp1592
a(I914
I424
tp1593
aa(lp1594
(I-121
I465
tp1595
a(I815
I424
tp1596
aa(lp1597
(I725
I424
tp1598
aa(lp1599
(I626
I424
tp1600
aa(lp1601
(I536
I424
tp1602
aa(lp1603
(I437
I424
tp1604
aa(lp1605
(I338
I424
tp1606
aa(lp1607
(I248
I424
tp1608
aa(lp1609
(I149
I424
tp1610
aa(lp1611
(I995
I269
tp1612
a(I59
I424
tp1613
aa(lp1614
(I896
I269
tp1615
a(I-40
I424
tp1616
aa(lp1617
(I806
I269
tp1618
a(I-130
I424
tp1619
aa(lp1620
(I707
I269
tp1621
aa(lp1622
(I617
I269
tp1623
aa(lp1624
(I518
I269
tp1625
aa(lp1626
(I419
I269
tp1627
aa(lp1628
(I329
I269
tp1629
aa(lp1630
(I230
I269
tp1631
aa(lp1632
(I140
I269
tp1633
aa(lp1634
(I41
I269
tp1635
a(I977
I481
tp1636
aa(lp1637
(I-58
I269
tp1638
a(I878
I481
tp1639
aa(lp1640
(I788
I481
tp1641
aa(lp1642
(I689
I481
tp1643
aa(lp1644
(I599
I481
tp1645
aa(lp1646
(I500
I481
tp1647
aa(lp1648
(I401
I481
tp1649
aa(lp1650
(I311
I481
tp1651
aa(lp1652
(I212
I481
tp1653
aa(lp1654
(I1058
I209
tp1655
a(I122
I481
tp1656
aa(lp1657
(I959
I209
tp1658
a(I23
I481
tp1659
aa(lp1660
(I869
I209
tp1661
a(I-67
I481
tp1662
aa(lp1663
(I770
I209
tp1664
aa(lp1665
(I671
I209
tp1666
aa(lp1667
(I581
I209
tp1668
aa(lp1669
(I482
I209
tp1670
aa(lp1671
(I392
I209
tp1672
aa(lp1673
(I293
I209
tp1674
aa(lp1675
(I203
I209
tp1676
aa(lp1677
(I104
I209
tp1678
a(I1031
I465
tp1679
aa(lp1680
(I14
I209
tp1681
a(I941
I465
tp1682
aa(lp1683
(I-85
I209
tp1684
a(I842
I465
tp1685
aa(lp1686
(I752
I465
tp1687
aa(lp1688
(I653
I465
tp1689
aa(lp1690
(I554
I465
tp1691
aa(lp1692
(I464
I465
tp1693
aa(lp1694
(I365
I465
tp1695
aa(lp1696
(I275
I465
tp1697
aa(lp1698
(I176
I465
tp1699
aa(lp1700
(I1022
I282
tp1701
a(I86
I465
tp1702
aa(lp1703
(I923
I282
tp1704
a(I-13
I465
tp1705
aa(lp1706
(I824
I282
tp1707
a(I-112
I465
tp1708
aa(lp1709
(I734
I282
tp1710
aa(lp1711
(I635
I282
tp1712
aa(lp1713
(I545
I282
tp1714
aa(lp1715
(I446
I282
tp1716
aa(lp1717
(I356
I282
tp1718
aa(lp1719
(I257
I282
tp1720
aa(lp1721
(I167
I282
tp1722
aa(lp1723
(I68
I282
tp1724
a(I1004
I157
tp1725
aa(lp1726
(I-22
I282
tp1727
a(I914
I157
tp1728
aa(lp1729
(I-121
I282
tp1730
a(I815
I157
tp1731
aa(lp1732
(I725
I157
tp1733
aa(lp1734
(I626
I157
tp1735
aa(lp1736
(I536
I157
tp1737
aa(lp1738
(I437
I157
tp1739
aa(lp1740
(I338
I157
tp1741
aa(lp1742
(I248
I157
tp1743
aa(lp1744
(I149
I157
tp1745
aa(lp1746
(I986
I391
tp1747
a(I59
I157
tp1748
aa(lp1749
(I887
I391
tp1750
a(I-40
I157
tp1751
aa(lp1752
(I797
I391
tp1753
a(I-130
I157
tp1754
aa(lp1755
(I698
I391
tp1756
aa(lp1757
(I608
I391
tp1758
aa(lp1759
(I509
I391
tp1760
aa(lp1761
(I410
I391
tp1762
aa(lp1763
(I320
I391
tp1764
aa(lp1765
(I221
I391
tp1766
aa(lp1767
(I131
I391
tp1768
aa(lp1769
(I32
I391
tp1770
a(I968
I295
tp1771
aa(lp1772
(I-58
I391
tp1773
a(I878
I295
tp1774
aa(lp1775
(I779
I295
tp1776
aa(lp1777
(I689
I295
tp1778
aa(lp1779
(I590
I295
tp1780
aa(lp1781
(I491
I295
tp1782
aa(lp1783
(I401
I295
tp1784
aa(lp1785
(I302
I295
tp1786
aa(lp1787
(I212
I295
tp1788
aa(lp1789
(I1040
I219
tp1790
a(I113
I295
tp1791
aa(lp1792
(I950
I219
tp1793
a(I23
I295
tp1794
aa(lp1795
(I851
I219
tp1796
a(I-76
I295
tp1797
aa(lp1798
(I761
I219
tp1799
aa(lp1800
(I662
I219
tp1801
aa(lp1802
(I563
I219
tp1803
aa(lp1804
(I473
I219
tp1805
aa(lp1806
(I374
I219
tp1807
aa(lp1808
(I284
I219
tp1809
aa(lp1810
(I185
I219
tp1811
aa(lp1812
(I86
I219
tp1813
a(I1022
I184
tp1814
aa(lp1815
(I-4
I219
tp1816
a(I932
I184
tp1817
aa(lp1818
(I-103
I219
tp1819
a(I833
I184
tp1820
aa(lp1821
(I743
I184
tp1822
aa(lp1823
(I644
I184
tp1824
aa(lp1825
(I554
I184
tp1826
aa(lp1827
(I455
I184
tp1828
aa(lp1829
(I365
I184
tp1830
aa(lp1831
(I266
I184
tp1832
aa(lp1833
(I167
I184
tp1834
aa(lp1835
(I1013
I230
tp1836
a(I77
I184
tp1837
aa(lp1838
(I914
I230
tp1839
a(I-22
I184
tp1840
aa(lp1841
(I824
I230
tp1842
a(I-112
I184
tp1843
aa(lp1844
(I725
I230
tp1845
aa(lp1846
(I635
I230
tp1847
aa(lp1848
(I536
I230
tp1849
aa(lp1850
(I446
I230
tp1851
aa(lp1852
(I347
I230
tp1853
aa(lp1854
(I257
I230
tp1855
aa(lp1856
(I158
I230
tp1857
aa(lp1858
(I59
I230
tp1859
a(I995
I139
tp1860
aa(lp1861
(I-31
I230
tp1862
a(I905
I139
tp1863
aa(lp1864
(I-130
I230
tp1865
a(I806
I139
tp1866
aa(lp1867
(I707
I139
tp1868
aa(lp1869
(I617
I139
tp1870
aa(lp1871
(I518
I139
tp1872
aa(lp1873
(I428
I139
tp1874
aa(lp1875
(I329
I139
tp1876
aa(lp1877
(I230
I139
tp1878
aa(lp1879
(I140
I139
tp1880
aa(lp1881
(I986
I179
tp1882
a(I50
I139
tp1883
aa(lp1884
(I887
I179
tp1885
a(I-49
I139
tp1886
aa(lp1887
(I788
I179
tp1888
aa(lp1889
(I698
I179
tp1890
aa(lp1891
(I599
I179
tp1892
aa(lp1893
(I509
I179
tp1894
aa(lp1895
(I410
I179
tp1896
aa(lp1897
(I311
I179
tp1898
aa(lp1899
(I221
I179
tp1900
aa(lp1901
(I122
I179
tp1902
aa(lp1903
(I32
I179
tp1904
a(I968
I150
tp1905
aa(lp1906
(I-67
I179
tp1907
a(I869
I150
tp1908
aa(lp1909
(I779
I150
tp1910
aa(lp1911
(I680
I150
tp1912
aa(lp1913
(I581
I150
tp1914
aa(lp1915
(I491
I150
tp1916
aa(lp1917
(I392
I150
tp1918
aa(lp1919
(I302
I150
tp1920
aa(lp1921
(I203
I150
tp1922
aa(lp1923
(I1040
I423
tp1924
a(I113
I150
tp1925
aa(lp1926
(I941
I423
tp1927
a(I14
I150
tp1928
aa(lp1929
(I851
I423
tp1930
a(I-76
I150
tp1931
aa(lp1932
(I752
I423
tp1933
aa(lp1934
(I653
I423
tp1935
aa(lp1936
(I563
I423
tp1937
aa(lp1938
(I464
I423
tp1939
aa(lp1940
(I374
I423
tp1941
aa(lp1942
(I275
I423
tp1943
aa(lp1944
(I185
I423
tp1945
aa(lp1946
(I86
I423
tp1947
a(I1022
I298
tp1948
aa(lp1949
(I-4
I423
tp1950
a(I932
I298
tp1951
aa(lp1952
(I-103
I423
tp1953
a(I833
I298
tp1954
aa(lp1955
(I743
I298
tp1956
aa(lp1957
(I644
I298
tp1958
aa(lp1959
(I554
I298
tp1960
aa(lp1961
(I455
I298
tp1962
aa(lp1963
(I356
I298
tp1964
aa(lp1965
(I266
I298
tp1966
aa(lp1967
(I167
I298
tp1968
aa(lp1969
(I1013
I218
tp1970
a(I77
I298
tp1971
aa(lp1972
(I914
I218
tp1973
a(I-22
I298
tp1974
aa(lp1975
(I815
I218
tp1976
a(I-121
I298
tp1977
aa(lp1978
(I725
I218
tp1979
aa(lp1980
(I626
I218
tp1981
aa(lp1982
(I536
I218
tp1983
aa(lp1984
(I437
I218
tp1985
aa(lp1986
(I347
I218
tp1987
aa(lp1988
(I248
I218
tp1989
aa(lp1990
(I149
I218
tp1991
aa(lp1992
(I59
I218
tp1993
a(I995
I443
tp1994
aa(lp1995
(I-40
I218
tp1996
a(I896
I443
tp1997
aa(lp1998
(I-130
I218
tp1999
a(I806
I443
tp2000
aa(lp2001
(I707
I443
tp2002
aa(lp2003
(I617
I443
tp2004
aa(lp2005
(I518
I443
tp2006
aa(lp2007
(I419
I443
tp2008
aa(lp2009
(I329
I443
tp2010
aa(lp2011
(I230
I443
tp2012
aa(lp2013
(I140
I443
tp2014
aa(lp2015
(I977
I470
tp2016
a(I41
I443
tp2017
aa(lp2018
(I878
I470
tp2019
a(I-58
I443
tp2020
aa(lp2021
(I788
I470
tp2022
aa(lp2023
(I689
I470
tp2024
aa(lp2025
(I599
I470
tp2026
aa(lp2027
(I500
I470
tp2028
aa(lp2029
(I410
I470
tp2030
aa(lp2031
(I311
I470
tp2032
aa(lp2033
(I221
I470
tp2034
aa(lp2035
(I122
I470
tp2036
a(I1049
I209
tp2037
aa(lp2038
(I32
I470
tp2039
a(I959
I209
tp2040
aa(lp2041
(I-67
I470
tp2042
a(I860
I209
tp2043
aa(lp2044
(I770
I209
tp2045
aa(lp2046
(I671
I209
tp2047
aa(lp2048
(I581
I209
tp2049
aa(lp2050
(I482
I209
tp2051
aa(lp2052
(I392
I209
tp2053
aa(lp2054
(I293
I209
tp2055
aa(lp2056
(I203
I209
tp2057
aa(lp2058
(I1040
I220
tp2059
a(I104
I209
tp2060
aa(lp2061
(I941
I220
tp2062
a(I5
I209
tp2063
aa(lp2064
(I851
I220
tp2065
a(I-85
I209
tp2066
aa(lp2067
(I752
I220
tp2068
aa(lp2069
(I662
I220
tp2070
aa(lp2071
(I563
I220
tp2072
aa(lp2073
(I473
I220
tp2074
aa(lp2075
(I374
I220
tp2076
aa(lp2077
(I275
I220
tp2078
aa(lp2079
(I185
I220
tp2080
aa(lp2081
(I86
I220
tp2082
a(I1013
I159
tp2083
aa(lp2084
(I-4
I220
tp2085
a(I923
I159
tp2086
aa(lp2087
(I-103
I220
tp2088
a(I824
I159
tp2089
aa(lp2090
(I734
I159
tp2091
aa(lp2092
(I635
I159
tp2093
aa(lp2094
(I545
I159
tp2095
aa(lp2096
(I446
I159
tp2097
aa(lp2098
(I347
I159
tp2099
aa(lp2100
(I257
I159
tp2101
aa(lp2102
(I158
I159
tp2103
aa(lp2104
(I1004
I163
tp2105
a(I68
I159
tp2106
aa(lp2107
(I905
I163
tp2108
a(I-31
I159
tp2109
aa(lp2110
(I815
I163
tp2111
a(I-121
I159
tp2112
aa(lp2113
(I716
I163
tp2114
aa(lp2115
(I626
I163
tp2116
aa(lp2117
(I527
I163
tp2118
aa(lp2119
(I428
I163
tp2120
aa(lp2121
(I338
I163
tp2122
aa(lp2123
(I239
I163
tp2124
aa(lp2125
(I149
I163
tp2126
aa(lp2127
(I50
I163
tp2128
a(I986
I308
tp2129
aa(lp2130
(I-40
I163
tp2131
a(I896
I308
tp2132
aa(lp2133
(I-139
I163
tp2134
a(I797
I308
tp2135
aa(lp2136
(I698
I308
tp2137
aa(lp2138
(I608
I308
tp2139
aa(lp2140
(I509
I308
tp2141
aa(lp2142
(I419
I308
tp2143
aa(lp2144
(I320
I308
tp2145
aa(lp2146
(I230
I308
tp2147
aa(lp2148
(I131
I308
tp2149
aa(lp2150
(I959
I237
tp2151
a(I32
I308
tp2152
aa(lp2153
(I869
I237
tp2154
a(I-58
I308
tp2155
aa(lp2156
(I770
I237
tp2157
aa(lp2158
(I680
I237
tp2159
aa(lp2160
(I581
I237
tp2161
aa(lp2162
(I491
I237
tp2163
aa(lp2164
(I392
I237
tp2165
aa(lp2166
(I302
I237
tp2167
aa(lp2168
(I203
I237
tp2169
aa(lp2170
(I104
I237
tp2171
a(I1040
I480
tp2172
aa(lp2173
(I14
I237
tp2174
a(I950
I480
tp2175
aa(lp2176
(I-85
I237
tp2177
a(I851
I480
tp2178
aa(lp2179
(I761
I480
tp2180
aa(lp2181
(I662
I480
tp2182
aa(lp2183
(I572
I480
tp2184
aa(lp2185
(I473
I480
tp2186
aa(lp2187
(I383
I480
tp2188
aa(lp2189
(I284
I480
tp2190
aa(lp2191
(I194
I480
tp2192
aa(lp2193
(I1031
I199
tp2194
a(I95
I480
tp2195
aa(lp2196
(I932
I199
tp2197
a(I-4
I480
tp2198
aa(lp2199
(I842
I199
tp2200
a(I-94
I480
tp2201
aa(lp2202
(I743
I199
tp2203
aa(lp2204
(I653
I199
tp2205
aa(lp2206
(I554
I199
tp2207
aa(lp2208
(I455
I199
tp2209
aa(lp2210
(I365
I199
tp2211
aa(lp2212
(I266
I199
tp2213
aa(lp2214
(I176
I199
tp2215
aa(lp2216
(I77
I199
tp2217
a(I1013
I275
tp2218
aa(lp2219
(I-13
I199
tp2220
a(I923
I275
tp2221
aa(lp2222
(I-112
I199
tp2223
a(I824
I275
tp2224
aa(lp2225
(I725
I275
tp2226
aa(lp2227
(I635
I275
tp2228
aa(lp2229
(I536
I275
tp2230
aa(lp2231
(I446
I275
tp2232
aa(lp2233
(I347
I275
tp2234
aa(lp2235
(I257
I275
tp2236
aa(lp2237
(I158
I275
tp2238
aa(lp2239
(I995
I281
tp2240
a(I59
I275
tp2241
aa(lp2242
(I905
I281
tp2243
a(I-31
I275
tp2244
aa(lp2245
(I806
I281
tp2246
a(I-130
I275
tp2247
aa(lp2248
(I716
I281
tp2249
aa(lp2250
(I617
I281
tp2251
aa(lp2252
(I518
I281
tp2253
aa(lp2254
(I428
I281
tp2255
aa(lp2256
(I329
I281
tp2257
aa(lp2258
(I239
I281
tp2259
aa(lp2260
(I140
I281
tp2261
aa(lp2262
(I50
I281
tp2263
a(I977
I345
tp2264
aa(lp2265
(I-49
I281
tp2266
a(I878
I345
tp2267
aa(lp2268
(I-139
I281
tp2269
a(I788
I345
tp2270
aa(lp2271
(I689
I345
tp2272
aa(lp2273
(I599
I345
tp2274
aa(lp2275
(I500
I345
tp2276
aa(lp2277
(I401
I345
tp2278
aa(lp2279
(I311
I345
tp2280
aa(lp2281
(I212
I345
tp2282
aa(lp2283
(I122
I345
tp2284
aa(lp2285
(I959
I274
tp2286
a(I23
I345
tp2287
aa(lp2288
(I869
I274
tp2289
a(I-67
I345
tp2290
aa(lp2291
(I770
I274
tp2292
aa(lp2293
(I671
I274
tp2294
aa(lp2295
(I581
I274
tp2296
aa(lp2297
(I482
I274
tp2298
aa(lp2299
(I392
I274
tp2300
aa(lp2301
(I293
I274
tp2302
aa(lp2303
(I194
I274
tp2304
aa(lp2305
(I104
I274
tp2306
a(I1040
I472
tp2307
aa(lp2308
(I5
I274
tp2309
a(I941
I472
tp2310
aa(lp2311
(I-85
I274
tp2312
a(I851
I472
tp2313
aa(lp2314
(I752
I472
tp2315
aa(lp2316
(I662
I472
tp2317
aa(lp2318
(I563
I472
tp2319
aa(lp2320
(I473
I472
tp2321
aa(lp2322
(I374
I472
tp2323
aa(lp2324
(I275
I472
tp2325
aa(lp2326
(I185
I472
tp2327
aa(lp2328
(I1022
I274
tp2329
a(I86
I472
tp2330
aa(lp2331
(I932
I274
tp2332
a(I-4
I472
tp2333
aa(lp2334
(I833
I274
tp2335
a(I-103
I472
tp2336
aa(lp2337
(I743
I274
tp2338
aa(lp2339
(I644
I274
tp2340
aa(lp2341
(I554
I274
tp2342
aa(lp2343
(I455
I274
tp2344
aa(lp2345
(I356
I274
tp2346
aa(lp2347
(I266
I274
tp2348
aa(lp2349
(I167
I274
tp2350
aa(lp2351
(I77
I274
tp2352
a(I1013
I236
tp2353
aa(lp2354
(I-22
I274
tp2355
a(I914
I236
tp2356
aa(lp2357
(I-112
I274
tp2358
a(I824
I236
tp2359
aa(lp2360
(I725
I236
tp2361
aa(lp2362
(I635
I236
tp2363
aa(lp2364
(I536
I236
tp2365
aa(lp2366
(I446
I236
tp2367
aa(lp2368
(I347
I236
tp2369
aa(lp2370
(I248
I236
tp2371
aa(lp2372
(I158
I236
tp2373
aa(lp2374
(I995
I421
tp2375
a(I59
I236
tp2376
aa(lp2377
(I896
I421
tp2378
a(I-40
I236
tp2379
aa(lp2380
(I806
I421
tp2381
a(I-130
I236
tp2382
aa(lp2383
(I707
I421
tp2384
aa(lp2385
(I617
I421
tp2386
aa(lp2387
(I518
I421
tp2388
aa(lp2389
(I428
I421
tp2390
aa(lp2391
(I329
I421
tp2392
aa(lp2393
(I239
I421
tp2394
aa(lp2395
(I140
I421
tp2396
aa(lp2397
(I41
I421
tp2398
a(I968
I514
tp2399
aa(lp2400
(I-49
I421
tp2401
a(I878
I514
tp2402
aa(lp2403
(I779
I514
tp2404
aa(lp2405
(I689
I514
tp2406
aa(lp2407
(I590
I514
tp2408
aa(lp2409
(I491
I514
tp2410
aa(lp2411
(I401
I514
tp2412
aa(lp2413
(I311
I514
tp2414
aa(lp2415
(I212
I514
tp2416
aa(lp2417
(I1049
I446
tp2418
a(I113
I514
tp2419
aa(lp2420
(I959
I446
tp2421
a(I23
I514
tp2422
aa(lp2423
(I860
I446
tp2424
a(I-76
I514
tp2425
aa(lp2426
(I770
I446
tp2427
aa(lp2428
(I671
I446
tp2429
aa(lp2430
(I581
I446
tp2431
aa(lp2432
(I482
I446
tp2433
aa(lp2434
(I383
I446
tp2435
aa(lp2436
(I293
I446
tp2437
aa(lp2438
(I194
I446
tp2439
aa(lp2440
(I104
I446
tp2441
a(I1040
I513
tp2442
aa(lp2443
(I5
I446
tp2444
a(I941
I513
tp2445
aa(lp2446
(I-94
I446
tp2447
a(I842
I513
tp2448
aa(lp2449
(I752
I513
tp2450
aa(lp2451
(I653
I513
tp2452
aa(lp2453
(I563
I513
tp2454
aa(lp2455
(I464
I513
tp2456
aa(lp2457
(I374
I513
tp2458
aa(lp2459
(I275
I513
tp2460
aa(lp2461
(I185
I513
tp2462
aa(lp2463
(I1022
I381
tp2464
a(I86
I513
tp2465
aa(lp2466
(I923
I381
tp2467
a(I-13
I513
tp2468
aa(lp2469
(I833
I381
tp2470
a(I-103
I513
tp2471
aa(lp2472
(I734
I381
tp2473
aa(lp2474
(I644
I381
tp2475
aa(lp2476
(I545
I381
tp2477
aa(lp2478
(I455
I381
tp2479
aa(lp2480
(I356
I381
tp2481
aa(lp2482
(I257
I381
tp2483
aa(lp2484
(I167
I381
tp2485
aa(lp2486
(I68
I381
tp2487
a(I995
I320
tp2488
aa(lp2489
(I-22
I381
tp2490
a(I905
I320
tp2491
aa(lp2492
(I-121
I381
tp2493
a(I806
I320
tp2494
aa(lp2495
(I716
I320
tp2496
aa(lp2497
(I617
I320
tp2498
aa(lp2499
(I527
I320
tp2500
aa(lp2501
(I428
I320
tp2502
aa(lp2503
(I329
I320
tp2504
aa(lp2505
(I239
I320
tp2506
aa(lp2507
(I140
I320
tp2508
aa(lp2509
(I986
I442
tp2510
a(I50
I320
tp2511
aa(lp2512
(I887
I442
tp2513
a(I-49
I320
tp2514
aa(lp2515
(I788
I442
tp2516
aa(lp2517
(I698
I442
tp2518
aa(lp2519
(I599
I442
tp2520
aa(lp2521
(I509
I442
tp2522
aa(lp2523
(I410
I442
tp2524
aa(lp2525
(I320
I442
tp2526
aa(lp2527
(I221
I442
tp2528
aa(lp2529
(I122
I442
tp2530
aa(lp2531
(I32
I442
tp2532
a(I968
I480
tp2533
aa(lp2534
(I-67
I442
tp2535
a(I869
I480
tp2536
aa(lp2537
(I779
I480
tp2538
aa(lp2539
(I680
I480
tp2540
aa(lp2541
(I590
I480
tp2542
aa(lp2543
(I491
I480
tp2544
aa(lp2545
(I401
I480
tp2546
aa(lp2547
(I302
I480
tp2548
aa(lp2549
(I203
I480
tp2550
aa(lp2551
(I1049
I241
tp2552
a(I113
I480
tp2553
aa(lp2554
(I950
I241
tp2555
a(I14
I480
tp2556
aa(lp2557
(I860
I241
tp2558
a(I-76
I480
tp2559
aa(lp2560
(I761
I241
tp2561
aa(lp2562
(I671
I241
tp2563
aa(lp2564
(I572
I241
tp2565
aa(lp2566
(I473
I241
tp2567
aa(lp2568
(I383
I241
tp2569
aa(lp2570
(I284
I241
tp2571
aa(lp2572
(I194
I241
tp2573
aa(lp2574
(I95
I241
tp2575
a(I1031
I422
tp2576
aa(lp2577
(I5
I241
tp2578
a(I941
I422
tp2579
aa(lp2580
(I-94
I241
tp2581
a(I842
I422
tp2582
aa(lp2583
(I752
I422
tp2584
aa(lp2585
(I653
I422
tp2586
aa(lp2587
(I554
I422
tp2588
aa(lp2589
(I464
I422
tp2590
aa(lp2591
(I365
I422
tp2592
aa(lp2593
(I275
I422
tp2594
aa(lp2595
(I176
I422
tp2596
aa(lp2597
(I1013
I171
tp2598
a(I77
I422
tp2599
aa(lp2600
(I923
I171
tp2601
a(I-13
I422
tp2602
aa(lp2603
(I824
I171
tp2604
a(I-112
I422
tp2605
aa(lp2606
(I734
I171
tp2607
aa(lp2608
(I635
I171
tp2609
aa(lp2610
(I536
I171
tp2611
aa(lp2612
(I446
I171
tp2613
aa(lp2614
(I347
I171
tp2615
aa(lp2616
(I257
I171
tp2617
aa(lp2618
(I158
I171
tp2619
aa(lp2620
(I68
I171
tp2621
a(I1004
I343
tp2622
aa(lp2623
(I-31
I171
tp2624
a(I905
I343
tp2625
aa(lp2626
(I-130
I171
tp2627
a(I806
I343
tp2628
aa(lp2629
(I716
I343
tp2630
aa(lp2631
(I617
I343
tp2632
aa(lp2633
(I527
I343
tp2634
aa(lp2635
(I428
I343
tp2636
aa(lp2637
(I329
I343
tp2638
aa(lp2639
(I239
I343
tp2640
aa(lp2641
(I140
I343
tp2642
aa(lp2643
(I986
I380
tp2644
a(I50
I343
tp2645
aa(lp2646
(I887
I380
tp2647
a(I-49
I343
tp2648
aa(lp2649
(I788
I380
tp2650
aa(lp2651
(I698
I380
tp2652
aa(lp2653
(I599
I380
tp2654
aa(lp2655
(I509
I380
tp2656
aa(lp2657
(I410
I380
tp2658
aa(lp2659
(I320
I380
tp2660
aa(lp2661
(I221
I380
tp2662
aa(lp2663
(I122
I380
tp2664
aa(lp2665
(I32
I380
tp2666
a(I968
I364
tp2667
aa(lp2668
(I-67
I380
tp2669
a(I869
I364
tp2670
aa(lp2671
(I779
I364
tp2672
aa(lp2673
(I680
I364
tp2674
aa(lp2675
(I590
I364
tp2676
aa(lp2677
(I491
I364
tp2678
aa(lp2679
(I392
I364
tp2680
aa(lp2681
(I302
I364
tp2682
aa(lp2683
(I203
I364
tp2684
aa(lp2685
(I1049
I269
tp2686
a(I113
I364
tp2687
aa(lp2688
(I950
I269
tp2689
a(I14
I364
tp2690
aa(lp2691
(I851
I269
tp2692
a(I-85
I364
tp2693
aa(lp2694
(I761
I269
tp2695
aa(lp2696
(I662
I269
tp2697
aa(lp2698
(I572
I269
tp2699
aa(lp2700
(I473
I269
tp2701
aa(lp2702
(I383
I269
tp2703
aa(lp2704
(I284
I269
tp2705
aa(lp2706
(I194
I269
tp2707
aa(lp2708
(I95
I269
tp2709
a(I1022
I155
tp2710
aa(lp2711
(I5
I269
tp2712
a(I932
I155
tp2713
aa(lp2714
(I-94
I269
tp2715
a(I833
I155
tp2716
aa(lp2717
(I734
I155
tp2718
aa(lp2719
(I644
I155
tp2720
aa(lp2721
(I545
I155
tp2722
aa(lp2723
(I455
I155
tp2724
aa(lp2725
(I356
I155
tp2726
aa(lp2727
(I266
I155
tp2728
aa(lp2729
(I167
I155
tp2730
aa(lp2731
(I1004
I216
tp2732
a(I68
I155
tp2733
aa(lp2734
(I914
I216
tp2735
a(I-22
I155
tp2736
aa(lp2737
(I815
I216
tp2738
a(I-121
I155
tp2739
aa(lp2740
(I725
I216
tp2741
aa(lp2742
(I626
I216
tp2743
aa(lp2744
(I536
I216
tp2745
aa(lp2746
(I437
I216
tp2747
aa(lp2748
(I338
I216
tp2749
aa(lp2750
(I248
I216
tp2751
aa(lp2752
(I149
I216
tp2753
aa(lp2754
(I59
I216
tp2755
a(I995
I217
tp2756
aa(lp2757
(I-40
I216
tp2758
a(I896
I217
tp2759
aa(lp2760
(I-139
I216
tp2761
a(I797
I217
tp2762
aa(lp2763
(I707
I217
tp2764
aa(lp2765
(I608
I217
tp2766
aa(lp2767
(I518
I217
tp2768
aa(lp2769
(I419
I217
tp2770
aa(lp2771
(I329
I217
tp2772
aa(lp2773
(I230
I217
tp2774
aa(lp2775
(I131
I217
tp2776
aa(lp2777
(I977
I214
tp2778
a(I41
I217
tp2779
aa(lp2780
(I878
I214
tp2781
a(I-58
I217
tp2782
aa(lp2783
(I788
I214
tp2784
aa(lp2785
(I689
I214
tp2786
aa(lp2787
(I599
I214
tp2788
aa(lp2789
(I500
I214
tp2790
aa(lp2791
(I401
I214
tp2792
aa(lp2793
(I311
I214
tp2794
aa(lp2795
(I212
I214
tp2796
aa(lp2797
(I122
I214
tp2798
a(I1058
I470
tp2799
aa(lp2800
(I23
I214
tp2801
a(I959
I470
tp2802
aa(lp2803
(I-67
I214
tp2804
a(I869
I470
tp2805
aa(lp2806
(I770
I470
tp2807
aa(lp2808
(I671
I470
tp2809
aa(lp2810
(I581
I470
tp2811
aa(lp2812
(I482
I470
tp2813
aa(lp2814
(I392
I470
tp2815
aa(lp2816
(I293
I470
tp2817
aa(lp2818
(I203
I470
tp2819
aa(lp2820
(I1031
I247
tp2821
a(I104
I470
tp2822
aa(lp2823
(I941
I247
tp2824
a(I14
I470
tp2825
aa(lp2826
(I842
I247
tp2827
a(I-85
I470
tp2828
aa(lp2829
(I743
I247
tp2830
aa(lp2831
(I653
I247
tp2832
aa(lp2833
(I554
I247
tp2834
aa(lp2835
(I464
I247
tp2836
aa(lp2837
(I365
I247
tp2838
aa(lp2839
(I275
I247
tp2840
aa(lp2841
(I176
I247
tp2842
aa(lp2843
(I86
I247
tp2844
a(I1022
I165
tp2845
aa(lp2846
(I-13
I247
tp2847
a(I923
I165
tp2848
aa(lp2849
(I-103
I247
tp2850
a(I833
I165
tp2851
aa(lp2852
(I734
I165
tp2853
aa(lp2854
(I635
I165
tp2855
aa(lp2856
(I545
I165
tp2857
aa(lp2858
(I446
I165
tp2859
aa(lp2860
(I356
I165
tp2861
aa(lp2862
(I257
I165
tp2863
aa(lp2864
(I167
I165
tp2865
aa(lp2866
(I1004
I439
tp2867
a(I68
I165
tp2868
aa(lp2869
(I905
I439
tp2870
a(I-31
I165
tp2871
aa(lp2872
(I815
I439
tp2873
a(I-121
I165
tp2874
aa(lp2875
(I716
I439
tp2876
aa(lp2877
(I626
I439
tp2878
aa(lp2879
(I527
I439
tp2880
aa(lp2881
(I437
I439
tp2882
aa(lp2883
(I338
I439
tp2884
aa(lp2885
(I248
I439
tp2886
aa(lp2887
(I149
I439
tp2888
aa(lp2889
(I50
I439
tp2890
a(I986
I206
tp2891
aa(lp2892
(I-40
I439
tp2893
a(I896
I206
tp2894
aa(lp2895
(I-139
I439
tp2896
a(I797
I206
tp2897
aa(lp2898
(I707
I206
tp2899
aa(lp2900
(I608
I206
tp2901
aa(lp2902
(I518
I206
tp2903
aa(lp2904
(I419
I206
tp2905
aa(lp2906
(I329
I206
tp2907
aa(lp2908
(I230
I206
tp2909
aa(lp2910
(I140
I206
tp2911
aa(lp2912
(I968
I187
tp2913
a(I41
I206
tp2914
aa(lp2915
(I869
I187
tp2916
a(I-58
I206
tp2917
aa(lp2918
(I779
I187
tp2919
aa(lp2920
(I680
I187
tp2921
aa(lp2922
(I590
I187
tp2923
aa(lp2924
(I491
I187
tp2925
aa(lp2926
(I392
I187
tp2927
aa(lp2928
(I302
I187
tp2929
aa(lp2930
(I203
I187
tp2931
aa(lp2932
(I113
I187
tp2933
a(I1049
I143
tp2934
aa(lp2935
(I14
I187
tp2936
a(I950
I143
tp2937
aa(lp2938
(I-76
I187
tp2939
a(I860
I143
tp2940
aa(lp2941
(I761
I143
tp2942
aa(lp2943
(I662
I143
tp2944
aa(lp2945
(I572
I143
tp2946
aa(lp2947
(I473
I143
tp2948
aa(lp2949
(I383
I143
tp2950
aa(lp2951
(I284
I143
tp2952
aa(lp2953
(I194
I143
tp2954
aa(lp2955
(I1031
I288
tp2956
a(I95
I143
tp2957
aa(lp2958
(I941
I288
tp2959
a(I5
I143
tp2960
aa(lp2961
(I842
I288
tp2962
a(I-94
I143
tp2963
aa(lp2964
(I743
I288
tp2965
aa(lp2966
(I653
I288
tp2967
aa(lp2968
(I554
I288
tp2969
aa(lp2970
(I464
I288
tp2971
aa(lp2972
(I365
I288
tp2973
aa(lp2974
(I275
I288
tp2975
aa(lp2976
(I176
I288
tp2977
aa(lp2978
(I77
I288
tp2979
a(I1013
I193
tp2980
aa(lp2981
(I-13
I288
tp2982
a(I923
I193
tp2983
aa(lp2984
(I-112
I288
tp2985
a(I824
I193
tp2986
aa(lp2987
(I734
I193
tp2988
aa(lp2989
(I635
I193
tp2990
aa(lp2991
(I536
I193
tp2992
aa(lp2993
(I446
I193
tp2994
aa(lp2995
(I356
I193
tp2996
aa(lp2997
(I257
I193
tp2998
aa(lp2999
(I158
I193
tp3000
aa(lp3001
(I995
I200
tp3002
a(I68
I193
tp3003
aa(lp3004
(I896
I200
tp3005
a(I-31
I193
tp3006
aa(lp3007
(I806
I200
tp3008
a(I-121
I193
tp3009
aa(lp3010
(I707
I200
tp3011
aa(lp3012
(I617
I200
tp3013
aa(lp3014
(I518
I200
tp3015
aa(lp3016
(I428
I200
tp3017
aa(lp3018
(I329
I200
tp3019
aa(lp3020
(I230
I200
tp3021
aa(lp3022
(I140
I200
tp3023
aa(lp3024
(I41
I200
tp3025
a(I977
I508
tp3026
aa(lp3027
(I-49
I200
tp3028
a(I887
I508
tp3029
aa(lp3030
(I788
I508
tp3031
aa(lp3032
(I698
I508
tp3033
aa(lp3034
(I599
I508
tp3035
aa(lp3036
(I509
I508
tp3037
aa(lp3038
(I410
I508
tp3039
aa(lp3040
(I311
I508
tp3041
aa(lp3042
(I221
I508
tp3043
aa(lp3044
(I122
I508
tp3045
aa(lp3046
(I968
I459
tp3047
a(I32
I508
tp3048
aa(lp3049
(I869
I459
tp3050
a(I-67
I508
tp3051
aa(lp3052
(I779
I459
tp3053
aa(lp3054
(I680
I459
tp3055
aa(lp3056
(I590
I459
tp3057
aaa(lp3058
(I0
I326
I0
tp3059
a(I0
I326
I0
tp3060
a(I0
I326
I0
tp3061
a(I0
I326
I0
tp3062
a(I0
I284
I-1
tp3063
a(I0
I248
I0
tp3064
a(I0
I248
I0
tp3065
a(I0
I224
I-1
tp3066
a(I0
I158
I-1
tp3067
a(I0
I133
I-1
tp3068
a(I0
I133
I0
tp3069
a(I0
I133
I0
tp3070
a(I0
I145
I1
tp3071
a(I0
I211
I1
tp3072
a(I0
I271
I1
tp3073
a(I0
I337
I1
tp3074
a(I0
I397
I1
tp3075
a(I0
I463
I1
tp3076
a(I0
I523
I1
tp3077
a(I0
I518
I0
tp3078
a(I0
I518
I0
tp3079
a(I0
I512
I-1
tp3080
a(I0
I446
I-1
tp3081
a(I0
I386
I-1
tp3082
a(I0
I320
I-1
tp3083
a(I0
I290
I0
tp3084
a(I0
I290
I0
tp3085
a(I0
I236
I-1
tp3086
a(I0
I170
I-1
tp3087
a(I0
I131
I-1
tp3088
a(I0
I133
I0
tp3089
a(I0
I151
I1
tp3090
a(I0
I211
I1
tp3091
a(I0
I277
I1
tp3092
a(I0
I337
I1
tp3093
a(I0
I403
I1
tp3094
a(I0
I457
I0
tp3095
a(I0
I457
I0
tp3096
a(I0
I457
I0
tp3097
a(I0
I457
I0
tp3098
a(I0
I457
I0
tp3099
a(I0
I409
I-1
tp3100
a(I0
I343
I-1
tp3101
a(I0
I283
I-1
tp3102
a(I0
I217
I-1
tp3103
a(I0
I157
I-1
tp3104
a(I0
I145
I0
tp3105
a(I0
I145
I0
tp3106
a(I0
I145
I0
tp3107
a(I0
I145
I0
tp3108
a(I0
I193
I1
tp3109
a(I0
I259
I1
tp3110
a(I0
I325
I1
tp3111
a(I0
I385
I1
tp3112
a(I0
I451
I1
tp3113
a(I0
I511
I1
tp3114
a(I0
I521
I1
tp3115
a(I0
I524
I1
tp3116
a(I0
I518
I0
tp3117
a(I0
I518
I0
tp3118
a(I0
I488
I-1
tp3119
a(I0
I422
I-1
tp3120
a(I0
I362
I-1
tp3121
a(I0
I296
I-1
tp3122
a(I0
I236
I-1
tp3123
a(I0
I170
I-1
tp3124
a(I0
I131
I-1
tp3125
a(I0
I128
I-1
tp3126
a(I0
I133
I0
tp3127
a(I0
I133
I0
tp3128
a(I0
I133
I0
tp3129
a(I0
I139
I1
tp3130
a(I0
I205
I1
tp3131
a(I0
I205
I-1
tp3132
a(I0
I145
I-1
tp3133
a(I0
I133
I0
tp3134
a(I0
I133
I0
tp3135
a(I0
I133
I0
tp3136
a(I0
I133
I0
tp3137
a(I0
I133
I0
tp3138
a(I0
I133
I0
tp3139
a(I0
I133
I0
tp3140
a(I0
I130
I-1
tp3141
a(I0
I127
I-1
tp3142
a(I0
I133
I0
tp3143
a(I0
I133
I0
tp3144
a(I0
I133
I0
tp3145
a(I0
I133
I0
tp3146
a(I0
I133
I0
tp3147
a(I0
I133
I0
tp3148
a(I0
I133
I0
tp3149
a(I0
I133
I0
tp3150
a(I0
I128
I-1
tp3151
a(I0
I133
I0
tp3152
a(I0
I133
I0
tp3153
a(I0
I133
I0
tp3154
a(I0
I130
I-1
tp3155
a(I0
I127
I-1
tp3156
a(I0
I128
I-1
tp3157
a(I0
I131
I-1
tp3158
a(I0
I133
I0
tp3159
a(I0
I163
I1
tp3160
a(I0
I229
I1
tp3161
a(I0
I289
I1
tp3162
a(I0
I355
I1
tp3163
a(I0
I415
I1
tp3164
a(I0
I415
I0
tp3165
a(I0
I457
I1
tp3166
a(I0
I517
I1
tp3167
a(I0
I520
I1
tp3168
a(I0
I518
I0
tp3169
a(I0
I518
I0
tp3170
a(I0
I524
I1
tp3171
a(I0
I520
I1
tp3172
a(I0
I523
I1
tp3173
a(I0
I520
I1
tp3174
a(I0
I518
I0
tp3175
a(I0
I518
I0
tp3176
a(I0
I518
I0
tp3177
a(I0
I518
I0
tp3178
a(I0
I512
I-1
tp3179
a(I0
I458
I0
tp3180
a(I0
I476
I1
tp3181
a(I0
I521
I1
tp3182
a(I0
I518
I1
tp3183
a(I0
I521
I1
tp3184
a(I0
I518
I1
tp3185
a(I0
I518
I0
tp3186
a(I0
I518
I0
tp3187
a(I0
I523
I1
tp3188
a(I0
I519
I1
tp3189
a(I0
I518
I0
tp3190
a(I0
I518
I0
tp3191
a(I0
I524
I1
tp3192
a(I0
I520
I1
tp3193
a(I0
I524
I1
tp3194
a(I0
I520
I1
tp3195
a(I0
I524
I1
tp3196
a(I0
I518
I0
tp3197
a(I0
I518
I0
tp3198
a(I0
I524
I1
tp3199
a(I0
I520
I1
tp3200
a(I0
I524
I1
tp3201
a(I0
I520
I1
tp3202
a(I0
I523
I1
tp3203
a(I0
I520
I0
tp3204
a(I0
I518
I0
tp3205
a(I0
I518
I0
tp3206
a(I0
I524
I1
tp3207
a(I0
I521
I0
tp3208
a(I0
I488
I-1
tp3209
a(I0
I428
I-1
tp3210
a(I0
I362
I-1
tp3211
a(I0
I296
I-1
tp3212
a(I0
I236
I-1
tp3213
a(I0
I170
I-1
tp3214
a(I0
I131
I-1
tp3215
a(I0
I128
I-1
tp3216
a(I0
I132
I-1
tp3217
a(I0
I128
I-1
tp3218
a(I0
I131
I0
tp3219
a(I0
I129
I-1
tp3220
a(I0
I133
I-1
tp3221
a(I0
I129
I-1
tp3222
a(I0
I133
I-1
tp3223
a(I0
I129
I-1
tp3224
a(I0
I133
I0
tp3225
a(I0
I133
I0
tp3226
a(I0
I133
I-1
tp3227
a(I0
I130
I0
tp3228
a(I0
I151
I1
tp3229
a(I0
I217
I1
tp3230
a(I0
I277
I1
tp3231
a(I0
I343
I1
tp3232
a(I0
I409
I1
tp3233
a(I0
I469
I1
tp3234
a(I0
I521
I1
tp3235
a(I0
I518
I1
tp3236
a(I0
I521
I1
tp3237
a(I0
I518
I0
tp3238
a(I0
I524
I1
tp3239
a(I0
I521
I1
tp3240
a(I0
I524
I1
tp3241
a(I0
I521
I1
tp3242
a(I0
I524
I1
tp3243
a(I0
I520
I1
tp3244
a(I0
I524
I1
tp3245
a(I0
I520
I1
tp3246
a(I0
I523
I0
tp3247
a(I0
I506
I-1
tp3248
a(I0
I440
I-1
tp3249
a(I0
I380
I-1
tp3250
a(I0
I314
I-1
tp3251
a(I0
I254
I-1
tp3252
a(I0
I188
I-1
tp3253
a(I0
I128
I-1
tp3254
a(I0
I132
I-1
tp3255
a(I0
I133
I0
tp3256
a(I0
I163
I1
tp3257
a(I0
I229
I1
tp3258
a(I0
I289
I1
tp3259
a(I0
I355
I1
tp3260
a(I0
I397
I0
tp3261
a(I0
I457
I1
tp3262
a(I0
I517
I1
tp3263
a(I0
I520
I1
tp3264
a(I0
I523
I1
tp3265
a(I0
I520
I1
tp3266
a(I0
I506
I-1
tp3267
a(I0
I446
I-1
tp3268
a(I0
I380
I-1
tp3269
a(I0
I314
I-1
tp3270
a(I0
I254
I-1
tp3271
a(I0
I188
I-1
tp3272
a(I0
I128
I-1
tp3273
a(I0
I132
I-1
tp3274
a(I0
I128
I-1
tp3275
a(I0
I133
I0
tp3276
a(I0
I133
I-1
tp3277
a(I0
I129
I-1
tp3278
a(I0
I133
I-1
tp3279
a(I0
I129
I-1
tp3280
a(I0
I133
I-1
tp3281
a(I0
I129
I-1
tp3282
a(I0
I133
I0
tp3283
a(I0
I133
I0
tp3284
a(I0
I127
I-1
tp3285
a(I0
I128
I-1
tp3286
a(I0
I131
I-1
tp3287
a(I0
I133
I0
tp3288
a(I0
I133
I0
tp3289
a(I0
I128
I-1
tp3290
a(I0
I132
I-1
tp3291
a(I0
I128
I-1
tp3292
a(I0
I132
I-1
tp3293
a(I0
I128
I-1
tp3294
a(I0
I132
I-1
tp3295
a(I0
I129
I-1
tp3296
a(I0
I132
I-1
tp3297
a(I0
I133
I0
tp3298
a(I0
I133
I0
tp3299
a(I0
I130
I-1
tp3300
a(I0
I133
I-1
tp3301
a(I0
I130
I-1
tp3302
a(I0
I133
I-1
tp3303
a(I0
I130
I-1
tp3304
a(I0
I127
I-1
tp3305
a(I0
I130
I-1
tp3306
a(I0
I133
I0
tp3307
a(I0
I133
I0
tp3308
a(I0
I127
I-1
tp3309
a(I0
I130
I-1
tp3310
a(I0
I127
I-1
tp3311
a(I0
I131
I-1
tp3312
a(I0
I127
I-1
tp3313
a(I0
I131
I-1
tp3314
a(I0
I127
I-1
tp3315
a(I0
I131
I-1
tp3316
a(I0
I127
I-1
tp3317
a(I0
I131
I-1
tp3318
a(I0
I127
I-1
tp3319
a(I0
I131
I-1
tp3320
a(I0
I128
I-1
tp3321
a(I0
I131
I-1
tp3322
a(I0
I128
I-1
tp3323
a(I0
I131
I-1
tp3324
a(I0
I128
I-1
tp3325
a(I0
I131
I-1
tp3326
a(I0
I128
I-1
tp3327
a(I0
I131
I-1
tp3328
a(I0
I128
I-1
tp3329
a(I0
I132
I-1
tp3330
a(I0
I128
I-1
tp3331
a(I0
I132
I-1
tp3332
a(I0
I128
I-1
tp3333
a(I0
I132
I-1
tp3334
a(I0
I129
I-1
tp3335
a(I0
I132
I0
tp3336
a(I0
I133
I0
tp3337
a(I0
I133
I0
tp3338
a(I0
I133
I-1
tp3339
a(I0
I129
I-1
tp3340
a(I0
I133
I-1
tp3341
a(I0
I129
I-1
tp3342
a(I0
I133
I-1
tp3343
a(I0
I130
I-1
tp3344
a(I0
I133
I0
tp3345
a(I0
I157
I1
tp3346
a(I0
I223
I1
tp3347
a(I0
I283
I1
tp3348
a(I0
I349
I1
tp3349
a(I0
I409
I1
tp3350
a(I0
I475
I1
tp3351
a(I0
I521
I1
tp3352
a(I0
I524
I1
tp3353
a(I0
I520
I1
tp3354
a(I0
I518
I0
tp3355
a(I0
I464
I-1
tp3356
a(I0
I404
I-1
tp3357
a(I0
I338
I-1
tp3358
a(I0
I278
I-1
tp3359
a(I0
I212
I-1
tp3360
a(I0
I146
I-1
tp3361
a(I0
I128
I-1
tp3362
a(I0
I132
I-1
tp3363
a(I0
I128
I-1
tp3364
a(I0
I132
I-1
tp3365
a(I0
I128
I-1
tp3366
a(I0
I132
I-1
tp3367
a(I0
I129
I-1
tp3368
a(I0
I132
I-1
tp3369
a(I0
I129
I-1
tp3370
a(I0
I132
I-1
tp3371
a(I0
I129
I-1
tp3372
a(I0
I132
I-1
tp3373
a(I0
I129
I-1
tp3374
a(I0
I132
I-1
tp3375
a(I0
I127
I-1
tp3376
a(I0
I130
I-1
tp3377
a(I0
I127
I-1
tp3378
a(I0
I130
I-1
tp3379
a(I0
I127
I-1
tp3380
a(I0
I130
I-1
tp3381
a(I0
I127
I-1
tp3382
a(I0
I130
I-1
tp3383
a(I0
I127
I-1
tp3384
a(I0
I131
I-1
tp3385
a(I0
I127
I-1
tp3386
a(I0
I131
I-1
tp3387
a(I0
I127
I-1
tp3388
a(I0
I131
I-1
tp3389
a(I0
I128
I-1
tp3390
a(I0
I131
I-1
tp3391
a(I0
I133
I0
tp3392
a(I0
I133
I-1
tp3393
a(I0
I130
I-1
tp3394
a(I0
I133
I0
tp3395
a(I0
I187
I1
tp3396
a(I0
I253
I1
tp3397
a(I0
I313
I1
tp3398
a(I0
I379
I1
tp3399
a(I0
I439
I1
tp3400
a(I0
I505
I1
tp3401
a(I0
I523
I1
tp3402
a(I0
I519
I1
tp3403
a(I0
I523
I1
tp3404
a(I0
I519
I1
tp3405
a(I0
I518
I0
tp3406
a(I0
I518
I1
tp3407
a(I0
I521
I1
tp3408
a(I0
I524
I1
tp3409
a(I0
I521
I1
tp3410
a(I0
I524
I1
tp3411
a(I0
I521
I1
tp3412
a(I0
I524
I1
tp3413
a(I0
I521
I1
tp3414
a(I0
I518
I0
tp3415
a(I0
I522
I1
tp3416
a(I0
I519
I1
tp3417
a(I0
I522
I1
tp3418
a(I0
I519
I1
tp3419
a(I0
I522
I1
tp3420
a(I0
I519
I1
tp3421
a(I0
I522
I1
tp3422
a(I0
I519
I1
tp3423
a(I0
I522
I1
tp3424
a(I0
I519
I1
tp3425
a(I0
I518
I0
tp3426
a(I0
I523
I1
tp3427
a(I0
I520
I1
tp3428
a(I0
I523
I1
tp3429
a(I0
I520
I1
tp3430
a(I0
I523
I1
tp3431
a(I0
I520
I1
tp3432
a(I0
I523
I1
tp3433
a(I0
I519
I0
tp3434
a(I0
I488
I-1
tp3435
a(I0
I428
I-1
tp3436
a(I0
I362
I-1
tp3437
a(I0
I296
I-1
tp3438
a(I0
I236
I-1
tp3439
a(I0
I170
I-1
tp3440
a(I0
I131
I-1
tp3441
a(I0
I128
I-1
tp3442
a(I0
I132
I-1
tp3443
a(I0
I128
I-1
tp3444
a(I0
I132
I-1
tp3445
a(I0
I128
I-1
tp3446
a(I0
I132
I-1
tp3447
a(I0
I128
I-1
tp3448
a(I0
I132
I-1
tp3449
a(I0
I128
I-1
tp3450
a(I0
I132
I-1
tp3451
a(I0
I128
I-1
tp3452
a(I0
I132
I-1
tp3453
a(I0
I133
I0
tp3454
a(I0
I181
I1
tp3455
a(I0
I247
I1
tp3456
a(I0
I307
I1
tp3457
a(I0
I373
I1
tp3458
a(I0
I439
I1
tp3459
a(I0
I499
I1
tp3460
a(I0
I524
I1
tp3461
a(I0
I520
I1
tp3462
a(I0
I524
I1
tp3463
a(I0
I506
I-1
tp3464
a(I0
I440
I-1
tp3465
a(I0
I380
I-1
tp3466
a(I0
I314
I-1
tp3467
a(I0
I254
I-1
tp3468
a(I0
I188
I-1
tp3469
a(I0
I129
I-1
tp3470
a(I0
I132
I0
tp3471
a(I0
I139
I1
tp3472
a(I0
I199
I1
tp3473
a(I0
I265
I1
tp3474
a(I0
I331
I1
tp3475
a(I0
I379
I0
tp3476
a(I0
I421
I1
tp3477
a(I0
I451
I0
tp3478
a(I0
I451
I0
tp3479
a(I0
I409
I-1
tp3480
a(I0
I361
I0
tp3481
a(I0
I391
I1
tp3482
a(I0
I451
I1
tp3483
a(I0
I439
I-1
tp3484
a(I0
I379
I-1
tp3485
a(I0
I313
I-1
tp3486
a(I0
I253
I-1
tp3487
a(I0
I187
I-1
tp3488
a(I0
I127
I-1
tp3489
a(I0
I131
I-1
tp3490
a(I0
I127
I-1
tp3491
a(I0
I131
I-1
tp3492
a(I0
I127
I-1
tp3493
a(I0
I131
I0
tp3494
a(I0
I133
I0
tp3495
a(I0
I130
I-1
tp3496
a(I0
I127
I-1
tp3497
a(I0
I130
I-1
tp3498
a(I0
I127
I-1
tp3499
a(I0
I130
I-1
tp3500
a(I0
I127
I-1
tp3501
a(I0
I130
I-1
tp3502
a(I0
I145
I1
tp3503
a(I0
I205
I1
tp3504
a(I0
I271
I1
tp3505
a(I0
I337
I1
tp3506
a(I0
I397
I1
tp3507
a(I0
I463
I1
tp3508
a(I0
I523
I1
tp3509
a(I0
I519
I1
tp3510
a(I0
I522
I1
tp3511
a(I0
I519
I1
tp3512
a(I0
I500
I-1
tp3513
a(I0
I440
I-1
tp3514
a(I0
I374
I-1
tp3515
a(I0
I308
I-1
tp3516
a(I0
I248
I-1
tp3517
a(I0
I182
I-1
tp3518
a(I0
I129
I-1
tp3519
a(I0
I133
I-1
tp3520
a(I0
I129
I-1
tp3521
a(I0
I133
I0
tp3522
a(I0
I181
I1
tp3523
a(I0
I241
I1
tp3524
a(I0
I307
I1
tp3525
a(I0
I367
I1
tp3526
a(I0
I433
I1
tp3527
a(I0
I499
I1
tp3528
a(I0
I524
I1
tp3529
a(I0
I520
I1
tp3530
a(I0
I518
I0
tp3531
a(I0
I482
I-1
tp3532
a(I0
I422
I-1
tp3533
a(I0
I356
I-1
tp3534
a(I0
I290
I-1
tp3535
a(I0
I230
I-1
tp3536
a(I0
I164
I-1
tp3537
a(I0
I132
I-1
tp3538
a(I0
I129
I0
tp3539
a(I0
I133
I0
tp3540
a(I0
I175
I1
tp3541
a(I0
I235
I1
tp3542
a(I0
I301
I1
tp3543
a(I0
I361
I1
tp3544
a(I0
I427
I1
tp3545
a(I0
I487
I1
tp3546
a(I0
I518
I1
tp3547
a(I0
I521
I1
tp3548
a(I0
I518
I0
tp3549
a(I0
I518
I0
tp3550
a(I0
I470
I-1
tp3551
a(I0
I404
I-1
tp3552
a(I0
I344
I-1
tp3553
a(I0
I278
I-1
tp3554
a(I0
I212
I-1
tp3555
a(I0
I152
I-1
tp3556
a(I0
I128
I-1
tp3557
a(I0
I133
I0
tp3558
a(I0
I145
I1
tp3559
a(I0
I205
I1
tp3560
a(I0
I271
I1
tp3561
a(I0
I331
I1
tp3562
a(I0
I397
I1
tp3563
a(I0
I457
I1
tp3564
a(I0
I523
I1
tp3565
a(I0
I520
I1
tp3566
a(I0
I518
I0
tp3567
a(I0
I482
I-1
tp3568
a(I0
I458
I0
tp3569
a(I0
I428
I-1
tp3570
a(I0
I422
I0
tp3571
a(I0
I422
I0
tp3572
a(I0
I368
I-1
tp3573
a(I0
I302
I-1
tp3574
a(I0
I242
I-1
tp3575
a(I0
I176
I-1
tp3576
a(I0
I130
I-1
tp3577
a(I0
I127
I-1
tp3578
a(I0
I130
I-1
tp3579
a(I0
I133
I0
tp3580
a(I0
I163
I1
tp3581
a(I0
I223
I1
tp3582
a(I0
I289
I1
tp3583
a(I0
I349
I1
tp3584
a(I0
I415
I1
tp3585
a(I0
I475
I1
tp3586
a(I0
I520
I1
tp3587
a(I0
I523
I1
tp3588
a(I0
I518
I0
tp3589
a(I0
I518
I0
tp3590
a(I0
I482
I0
tp3591
a(I0
I518
I1
tp3592
a(I0
I522
I1
tp3593
a(I0
I518
I1
tp3594
a(I0
I522
I1
tp3595
a(I0
I518
I0
tp3596
a(I0
I518
I0
tp3597
a(I0
I518
I0
tp3598
a(I0
I518
I0
tp3599
a(I0
I518
I0
tp3600
a(I0
I494
I-1
tp3601
a(I0
I434
I-1
tp3602
a(I0
I368
I-1
tp3603
a(I0
I308
I-1
tp3604
a(I0
I242
I-1
tp3605
a(I0
I176
I-1
tp3606
a(I0
I130
I-1
tp3607
a(I0
I127
I-1
tp3608
a(I0
I130
I-1
tp3609
a(I0
I127
I-1
tp3610
a(I0
I130
I-1
tp3611
a(I0
I127
I-1
tp3612
a(I0
I131
I-1
tp3613
a(I0
I127
I-1
tp3614
a(I0
I133
I0
tp3615
a(I0
I131
I-1
tp3616
a(I0
I128
I-1
tp3617
a(I0
I131
I-1
tp3618
a(I0
I128
I-1
tp3619
a(I0
I131
I-1
tp3620
a(I0
I133
I0
tp3621
a(I0
I133
I0
tp3622
a(I0
I128
I-1
tp3623
a(I0
I132
I-1
tp3624
a(I0
I128
I-1
tp3625
a(I0
I132
I-1
tp3626
a(I0
I129
I-1
tp3627
a(I0
I133
I0
tp3628
a(I0
I133
I0
tp3629
a(I0
I133
I-1
tp3630
a(I0
I133
I0
tp3631
a(I0
I175
I1
tp3632
a(I0
I235
I1
tp3633
a(I0
I301
I1
tp3634
a(I0
I361
I1
tp3635
a(I0
I427
I1
tp3636
a(I0
I493
I1
tp3637
a(I0
I518
I1
tp3638
a(I0
I521
I1
tp3639
a(I0
I518
I0
tp3640
a(I0
I518
I0
tp3641
a(I0
I522
I1
tp3642
a(I0
I518
I1
tp3643
a(I0
I521
I1
tp3644
a(I0
I518
I1
tp3645
a(I0
I521
I1
tp3646
a(I0
I518
I1
tp3647
a(I0
I518
I0
tp3648
a(I0
I524
I1
tp3649
a(I0
I520
I1
tp3650
a(I0
I524
I1
tp3651
a(I0
I520
I1
tp3652
a(I0
I523
I1
tp3653
a(I0
I520
I1
tp3654
a(I0
I523
I1
tp3655
a(I0
I520
I1
tp3656
a(I0
I518
I0
tp3657
a(I0
I518
I0
tp3658
a(I0
I518
I0
tp3659
a(I0
I488
I-1
tp3660
a(I0
I422
I-1
tp3661
a(I0
I356
I-1
tp3662
a(I0
I296
I-1
tp3663
a(I0
I230
I-1
tp3664
a(I0
I170
I-1
tp3665
a(I0
I132
I-1
tp3666
a(I0
I128
I-1
tp3667
a(I0
I132
I-1
tp3668
a(I0
I133
I0
tp3669
a(I0
I128
I-1
tp3670
a(I0
I132
I-1
tp3671
a(I0
I128
I-1
tp3672
a(I0
I132
I-1
tp3673
a(I0
I133
I0
tp3674
a(I0
I128
I-1
tp3675
a(I0
I131
I-1
tp3676
a(I0
I128
I-1
tp3677
a(I0
I131
I-1
tp3678
a(I0
I128
I-1
tp3679
a(I0
I133
I0
tp3680
a(I0
I193
I1
tp3681
a(I0
I259
I1
tp3682
a(I0
I319
I1
tp3683
a(I0
I385
I1
tp3684
a(I0
I445
I1
tp3685
a(I0
I511
I1
tp3686
a(I0
I522
I1
tp3687
a(I0
I518
I1
tp3688
a(I0
I522
I1
tp3689
a(I0
I518
I0
tp3690
a(I0
I452
I-1
tp3691
a(I0
I392
I-1
tp3692
a(I0
I326
I-1
tp3693
a(I0
I260
I-1
tp3694
a(I0
I200
I-1
tp3695
a(I0
I134
I-1
tp3696
a(I0
I130
I-1
tp3697
a(I0
I127
I-1
tp3698
a(I0
I130
I-1
tp3699
a(I0
I133
I0
tp3700
a(I0
I133
I0
tp3701
a(I0
I129
I-1
tp3702
a(I0
I133
I-1
tp3703
a(I0
I129
I-1
tp3704
a(I0
I133
I-1
tp3705
a(I0
I129
I-1
tp3706
a(I0
I133
I0
tp3707
a(I0
I133
I0
tp3708
a(I0
I127
I-1
tp3709
a(I0
I131
I-1
tp3710
a(I0
I127
I-1
tp3711
a(I0
I131
I-1
tp3712
a(I0
I127
I-1
tp3713
a(I0
I131
I-1
tp3714
a(I0
I127
I-1
tp3715
a(I0
I131
I-1
tp3716
a(I0
I127
I-1
tp3717
a(I0
I131
I-1
tp3718
a(I0
I133
I0
tp3719
a(I0
I193
I1
tp3720
a(I0
I247
I0
tp3721
a(I0
I247
I0
tp3722
a(I0
I247
I0
tp3723
a(I0
I247
I0
tp3724
a(I0
I247
I0
tp3725
a(I0
I326
I0
tp3726
a(I0
I326
I0
tp3727
a(I0
I326
I0
tp3728
a(I0
I302
I-1
tp3729
a(I0
I242
I-1
tp3730
a(I0
I218
I0
tp3731
a(I0
I188
I-1
tp3732
a(I0
I134
I0
tp3733
a(I0
I134
I0
tp3734
a(I0
I134
I0
tp3735
a(I0
I134
I0
tp3736
a(I0
I134
I0
tp3737
a(I0
I164
I1
tp3738
a(I0
I230
I1
tp3739
a(I0
I296
I1
tp3740
a(I0
I356
I1
tp3741
a(I0
I422
I1
tp3742
a(I0
I482
I1
tp3743
a(I0
I494
I0
tp3744
a(I0
I494
I0
tp3745
a(I0
I494
I0
tp3746
a(I0
I464
I-1
tp3747
a(I0
I398
I-1
tp3748
a(I0
I338
I-1
tp3749
a(I0
I272
I-1
tp3750
a(I0
I212
I-1
tp3751
a(I0
I146
I-1
tp3752
a(I0
I133
I0
tp3753
a(I0
I133
I0
tp3754
a(I0
I133
I0
tp3755
a(I0
I133
I0
tp3756
a(I0
I163
I1
tp3757
a(I0
I223
I1
tp3758
a(I0
I211
I-1
tp3759
a(I0
I151
I-1
tp3760
a(I0
I127
I-1
tp3761
a(I0
I133
I0
tp3762
a(I0
I133
I0
tp3763
a(I0
I133
I0
tp3764
a(I0
I133
I0
tp3765
a(I0
I133
I0
tp3766
a(I0
I133
I0
tp3767
a(I0
I133
I0
tp3768
a(I0
I131
I-1
tp3769
a(I0
I128
I-1
tp3770
a(I0
I132
I-1
tp3771
a(I0
I133
I0
tp3772
a(I0
I133
I0
tp3773
a(I0
I133
I0
tp3774
a(I0
I133
I0
tp3775
a(I0
I133
I0
tp3776
a(I0
I133
I0
tp3777
a(I0
I133
I0
tp3778
a(I0
I133
I0
tp3779
a(I0
I133
I0
tp3780
a(I0
I133
I0
tp3781
a(I0
I133
I0
tp3782
a(I0
I133
I0
tp3783
a(I0
I133
I0
tp3784
a(I0
I133
I0
tp3785
a(I0
I151
I1
tp3786
a(I0
I217
I1
tp3787
a(I0
I283
I1
tp3788
a(I0
I343
I1
tp3789
a(I0
I409
I1
tp3790
a(I0
I469
I1
tp3791
a(I0
I505
I0
tp3792
a(I0
I505
I0
tp3793
a(I0
I505
I0
tp3794
a(I0
I505
I0
tp3795
a(I0
I487
I-1
tp3796
a(I0
I427
I-1
tp3797
a(I0
I361
I-1
tp3798
a(I0
I295
I-1
tp3799
a(I0
I235
I-1
tp3800
a(I0
I217
I0
tp3801
a(I0
I217
I0
tp3802
a(I0
I217
I0
tp3803
a(I0
I217
I0
tp3804
a(I0
I217
I0
tp3805
a(I0
I217
I0
tp3806
a(I0
I277
I1
tp3807
a(I0
I343
I1
tp3808
a(I0
I403
I1
tp3809
a(I0
I469
I1
tp3810
a(I0
I517
I0
tp3811
a(I0
I517
I0
tp3812
a(I0
I517
I0
tp3813
a(I0
I517
I0
tp3814
a(I0
I517
I0
tp3815
a(I0
I517
I0
tp3816
a(I0
I517
I0
tp3817
a(I0
I517
I0
tp3818
a(I0
I517
I0
tp3819
a(I0
I517
I0
tp3820
a(I0
I517
I0
tp3821
a(I0
I517
I0
tp3822
a(I0
I517
I0
tp3823
a(I0
I517
I0
tp3824
a(I0
I517
I0
tp3825
a(I0
I505
I-1
tp3826
a(I0
I439
I-1
tp3827
a(I0
I379
I-1
tp3828
a(I0
I313
I-1
tp3829
a(I0
I247
I-1
tp3830
a(I0
I187
I-1
tp3831
a(I0
I169
I0
tp3832
a(I0
I169
I0
tp3833
a(I0
I169
I0
tp3834
a(I0
I169
I0
tp3835
a(I0
I193
I1
tp3836
a(I0
I253
I1
tp3837
a(I0
I319
I1
tp3838
a(I0
I385
I1
tp3839
a(I0
I445
I1
tp3840
a(I0
I511
I1
tp3841
a(I0
I518
I0
tp3842
a(I0
I518
I0
tp3843
a(I0
I518
I0
tp3844
a(I0
I518
I0
tp3845
a(I0
I518
I0
tp3846
a(I0
I518
I0
tp3847
a(I0
I518
I0
tp3848
a(I0
I518
I0
tp3849
a(I0
I518
I0
tp3850
a(I0
I518
I0
tp3851
a(I0
I518
I0
tp3852
a(I0
I518
I0
tp3853
a(I0
I518
I0
tp3854
a(I0
I518
I0
tp3855
a(I0
I518
I0
tp3856
a(I0
I518
I0
tp3857
a(I0
I518
I0
tp3858
a(I0
I518
I0
tp3859
a(I0
I518
I0
tp3860
a(I0
I518
I0
tp3861
a(I0
I518
I0
tp3862
a(I0
I518
I0
tp3863
a(I0
I518
I0
tp3864
a(I0
I518
I0
tp3865
a(I0
I518
I0
tp3866
a(I0
I518
I0
tp3867
a(I0
I518
I0
tp3868
a(I0
I518
I0
tp3869
a(I0
I518
I0
tp3870
a(I0
I518
I0
tp3871
a(I0
I522
I1
tp3872
a(I0
I518
I0
tp3873
a(I0
I518
I0
tp3874
a(I0
I518
I0
tp3875
a(I0
I518
I0
tp3876
a(I0
I522
I1
tp3877
a(I0
I518
I0
tp3878
a(I0
I518
I0
tp3879
a(I0
I518
I0
tp3880
a(I0
I518
I0
tp3881
a(I0
I518
I0
tp3882
a(I0
I518
I0
tp3883
a(I0
I518
I0
tp3884
a(I0
I518
I0
tp3885
a(I0
I522
I1
tp3886
a(I0
I518
I0
tp3887
a(I0
I518
I0
tp3888
a(I0
I518
I0
tp3889
a(I0
I518
I0
tp3890
a(I0
I518
I0
tp3891
a(I0
I518
I0
tp3892
a(I0
I518
I0
tp3893
a(I0
I518
I0
tp3894
a(I0
I518
I0
tp3895
a(I0
I522
I1
tp3896
a(I0
I518
I0
tp3897
a(I0
I518
I0
tp3898
a(I0
I518
I0
tp3899
a(I0
I518
I0
tp3900
a(I0
I518
I0
tp3901
a(I0
I518
I0
tp3902
a(I0
I518
I0
tp3903
a(I0
I518
I0
tp3904
a(I0
I470
I-1
tp3905
a(I0
I404
I-1
tp3906
a(I0
I344
I-1
tp3907
a(I0
I278
I-1
tp3908
a(I0
I218
I-1
tp3909
a(I0
I152
I-1
tp3910
a(I0
I127
I-1
tp3911
a(I0
I133
I0
tp3912
a(I0
I133
I0
tp3913
a(I0
I133
I0
tp3914
a(I0
I133
I0
tp3915
a(I0
I129
I-1
tp3916
a(I0
I132
I-1
tp3917
a(I0
I133
I0
tp3918
a(I0
I133
I0
tp3919
a(I0
I133
I0
tp3920
a(I0
I129
I-1
tp3921
a(I0
I132
I-1
tp3922
a(I0
I133
I0
tp3923
a(I0
I133
I0
tp3924
a(I0
I169
I1
tp3925
a(I0
I235
I1
tp3926
a(I0
I295
I1
tp3927
a(I0
I361
I1
tp3928
a(I0
I421
I1
tp3929
a(I0
I487
I1
tp3930
a(I0
I518
I1
tp3931
a(I0
I518
I0
tp3932
a(I0
I518
I0
tp3933
a(I0
I512
I-1
tp3934
a(I0
I446
I-1
tp3935
a(I0
I386
I-1
tp3936
a(I0
I320
I-1
tp3937
a(I0
I254
I-1
tp3938
a(I0
I194
I-1
tp3939
a(I0
I128
I-1
tp3940
a(I0
I131
I0
tp3941
a(I0
I133
I0
tp3942
a(I0
I133
I0
tp3943
a(I0
I133
I0
tp3944
a(I0
I130
I-1
tp3945
a(I0
I133
I-1
tp3946
a(I0
I133
I0
tp3947
a(I0
I133
I0
tp3948
a(I0
I133
I0
tp3949
a(I0
I133
I0
tp3950
a(I0
I133
I0
tp3951
a(I0
I133
I0
tp3952
a(I0
I139
I1
tp3953
a(I0
I199
I1
tp3954
a(I0
I265
I1
tp3955
a(I0
I325
I1
tp3956
a(I0
I391
I1
tp3957
a(I0
I451
I1
tp3958
a(I0
I517
I1
tp3959
a(I0
I521
I1
tp3960
a(I0
I518
I0
tp3961
a(I0
I518
I0
tp3962
a(I0
I518
I0
tp3963
a(I0
I523
I1
tp3964
a(I0
I520
I1
tp3965
a(I0
I518
I0
tp3966
a(I0
I518
I0
tp3967
a(I0
I518
I0
tp3968
a(I0
I518
I0
tp3969
a(I0
I518
I0
tp3970
a(I0
I518
I0
tp3971
a(I0
I518
I0
tp3972
a(I0
I518
I0
tp3973
a(I0
I523
I1
tp3974
a(I0
I518
I0
tp3975
a(I0
I518
I0
tp3976
a(I0
I518
I0
tp3977
a(I0
I518
I0
tp3978
a(I0
I518
I0
tp3979
a(I0
I518
I0
tp3980
a(I0
I518
I0
tp3981
a(I0
I518
I0
tp3982
a(I0
I523
I1
tp3983
a(I0
I519
I1
tp3984
a(I0
I518
I0
tp3985
a(I0
I518
I0
tp3986
a(I0
I518
I0
tp3987
a(I0
I518
I0
tp3988
a(I0
I518
I0
tp3989
a(I0
I518
I0
tp3990
a(I0
I518
I0
tp3991
a(I0
I518
I0
tp3992
a(I0
I482
I-1
tp3993
a(I0
I428
I0
tp3994
a(I0
I380
I-1
tp3995
a(I0
I314
I-1
tp3996
a(I0
I254
I-1
tp3997
a(I0
I188
I-1
tp3998
a(I0
I128
I-1
tp3999
a(I0
I132
I-1
tp4000
a(I0
I129
I-1
tp4001
a(I0
I133
I0
tp4002
a(I0
I145
I1
tp4003
a(I0
I205
I1
tp4004
a(I0
I271
I1
tp4005
a(I0
I331
I1
tp4006
a(I0
I397
I1
tp4007
a(I0
I457
I1
tp4008
a(I0
I523
I1
tp4009
a(I0
I519
I1
tp4010
a(I0
I518
I0
tp4011
a(I0
I518
I0
tp4012
a(I0
I518
I0
tp4013
a(I0
I518
I0
tp4014
a(I0
I500
I-1
tp4015
a(I0
I434
I-1
tp4016
a(I0
I374
I-1
tp4017
a(I0
I308
I-1
tp4018
a(I0
I248
I-1
tp4019
a(I0
I182
I-1
tp4020
a(I0
I130
I-1
tp4021
a(I0
I133
I0
tp4022
a(I0
I175
I1
tp4023
a(I0
I235
I1
tp4024
a(I0
I301
I1
tp4025
a(I0
I367
I1
tp4026
a(I0
I427
I1
tp4027
a(I0
I493
I1
tp4028
a(I0
I505
I0
tp4029
a(I0
I505
I0
tp4030
a(I0
I505
I0
tp4031
a(I0
I505
I0
tp4032
a(I0
I523
I1
tp4033
a(I0
I520
I0
tp4034
a(I0
I518
I0
tp4035
a(I0
I518
I0
tp4036
a(I0
I518
I0
tp4037
a(I0
I518
I0
tp4038
a(I0
I518
I0
tp4039
a(I0
I518
I0
tp4040
a(I0
I518
I0
tp4041
a(I0
I518
I0
tp4042
a(I0
I523
I1
tp4043
a(I0
I519
I1
tp4044
a(I0
I518
I0
tp4045
a(I0
I518
I0
tp4046
a(I0
I518
I0
tp4047
a(I0
I518
I0
tp4048
a(I0
I518
I0
tp4049
a(I0
I518
I0
tp4050
a(I0
I518
I0
tp4051
a(I0
I518
I0
tp4052
a(I0
I518
I0
tp4053
a(I0
I522
I1
tp4054
a(I0
I518
I0
tp4055
a(I0
I518
I0
tp4056
a(I0
I518
I0
tp4057
a(I0
I518
I0
tp4058
a(I0
I518
I0
tp4059
a(I0
I518
I0
tp4060
a(I0
I518
I0
tp4061
a(I0
I523
I1
tp4062
a(I0
I519
I0
tp4063
a(I0
I518
I0
tp4064
a(I0
I518
I0
tp4065
a(I0
I518
I0
tp4066
a(I0
I518
I0
tp4067
a(I0
I518
I0
tp4068
a(I0
I518
I0
tp4069
a(I0
I518
I0
tp4070
a(I0
I518
I0
tp4071
a(I0
I452
I-1
tp4072
a(I0
I392
I-1
tp4073
a(I0
I326
I-1
tp4074
a(I0
I266
I-1
tp4075
a(I0
I200
I-1
tp4076
a(I0
I134
I-1
tp4077
a(I0
I130
I-1
tp4078
a(I0
I133
I0
tp4079
a(I0
I133
I0
tp4080
a(I0
I163
I1
tp4081
a(I0
I223
I1
tp4082
a(I0
I289
I1
tp4083
a(I0
I349
I1
tp4084
a(I0
I415
I1
tp4085
a(I0
I481
I1
tp4086
a(I0
I520
I1
tp4087
a(I0
I518
I0
tp4088
a(I0
I518
I0
tp4089
a(I0
I518
I0
tp4090
a(I0
I518
I0
tp4091
a(I0
I520
I1
tp4092
a(I0
I518
I0
tp4093
a(I0
I518
I0
tp4094
a(I0
I518
I0
tp4095
a(I0
I518
I0
tp4096
a(I0
I518
I0
tp4097
a(I0
I518
I0
tp4098
a(I0
I518
I0
tp4099
a(I0
I518
I0
tp4100
a(I0
I518
I0
tp4101
a(I0
I458
I-1
tp4102
a(I0
I398
I-1
tp4103
a(I0
I332
I-1
tp4104
a(I0
I272
I-1
tp4105
a(I0
I206
I-1
tp4106
a(I0
I146
I-1
tp4107
a(I0
I129
I0
tp4108
a(I0
I133
I0
tp4109
a(I0
I133
I0
tp4110
a(I0
I133
I0
tp4111
a(I0
I133
I0
tp4112
a(I0
I129
I-1
tp4113
a(I0
I133
I0
tp4114
a(I0
I133
I0
tp4115
a(I0
I133
I0
tp4116
a(I0
I133
I0
tp4117
a(I0
I133
I0
tp4118
a(I0
I133
I0
tp4119
a(I0
I133
I0
tp4120
a(I0
I133
I0
tp4121
a(I0
I132
I-1
tp4122
a(I0
I133
I0
tp4123
a(I0
I133
I0
tp4124
a(I0
I133
I0
tp4125
a(I0
I133
I0
tp4126
a(I0
I133
I0
tp4127
a(I0
I133
I0
tp4128
a(I0
I133
I0
tp4129
a(I0
I133
I0
tp4130
a(I0
I128
I-1
tp4131
a(I0
I132
I0
tp4132
a(I0
I133
I0
tp4133
a(I0
I133
I0
tp4134
a(I0
I133
I0
tp4135
a(I0
I133
I0
tp4136
a(I0
I133
I0
tp4137
a(I0
I133
I0
tp4138
a(I0
I133
I0
tp4139
a(I0
I133
I0
tp4140
a(I0
I133
I0
tp4141
a(I0
I130
I-1
tp4142
a(I0
I133
I0
tp4143
a(I0
I133
I0
tp4144
a(I0
I133
I0
tp4145
a(I0
I133
I0
tp4146
a(I0
I133
I0
tp4147
a(I0
I133
I0
tp4148
a(I0
I133
I0
tp4149
a(I0
I133
I0
tp4150
a(I0
I133
I0
tp4151
a(I0
I127
I-1
tp4152
a(I0
I130
I0
tp4153
a(I0
I133
I0
tp4154
a(I0
I133
I0
tp4155
a(I0
I133
I0
tp4156
a(I0
I133
I0
tp4157
a(I0
I133
I0
tp4158
a(I0
I133
I0
tp4159
a(I0
I133
I0
tp4160
a(I0
I133
I0
tp4161
a(I0
I133
I0
tp4162
a(I0
I133
I0
tp4163
a(I0
I133
I0
tp4164
a(I0
I133
I0
tp4165
a(I0
I133
I0
tp4166
a(I0
I133
I0
tp4167
a(I0
I133
I0
tp4168
a(I0
I133
I0
tp4169
a(I0
I129
I-1
tp4170
a(I0
I133
I0
tp4171
a(I0
I133
I0
tp4172
a(I0
I133
I0
tp4173
a(I0
I133
I0
tp4174
a(I0
I133
I0
tp4175
a(I0
I133
I0
tp4176
a(I0
I133
I0
tp4177
a(I0
I133
I0
tp4178
a(I0
I133
I0
tp4179
a(I0
I199
I1
tp4180
a(I0
I259
I1
tp4181
a(I0
I325
I1
tp4182
a(I0
I391
I1
tp4183
a(I0
I451
I1
tp4184
a(I0
I517
I1
tp4185
a(I0
I521
I1
tp4186
a(I0
I524
I1
tp4187
a(I0
I521
I0
tp4188
a(I0
I518
I0
tp4189
a(I0
I494
I-1
tp4190
a(I0
I428
I-1
tp4191
a(I0
I362
I-1
tp4192
a(I0
I302
I-1
tp4193
a(I0
I236
I-1
tp4194
a(I0
I176
I-1
tp4195
a(I0
I131
I0
tp4196
a(I0
I133
I0
tp4197
a(I0
I133
I0
tp4198
a(I0
I133
I0
tp4199
a(I0
I157
I1
tp4200
a(I0
I223
I1
tp4201
a(I0
I289
I1
tp4202
a(I0
I349
I1
tp4203
a(I0
I415
I1
tp4204
a(I0
I475
I1
tp4205
a(I0
I520
I1
tp4206
a(I0
I524
I1
tp4207
a(I0
I518
I0
tp4208
a(I0
I518
I0
tp4209
a(I0
I518
I0
tp4210
a(I0
I518
I0
tp4211
a(I0
I518
I0
tp4212
a(I0
I520
I1
tp4213
a(I0
I518
I0
tp4214
a(I0
I518
I0
tp4215
a(I0
I518
I0
tp4216
a(I0
I518
I0
tp4217
a(I0
I518
I0
tp4218
a(I0
I518
I0
tp4219
a(I0
I518
I0
tp4220
a(I0
I518
I0
tp4221
a(I0
I524
I1
tp4222
a(I0
I518
I0
tp4223
a(I0
I518
I0
tp4224
a(I0
I518
I0
tp4225
a(I0
I518
I0
tp4226
a(I0
I518
I0
tp4227
a(I0
I518
I0
tp4228
a(I0
I518
I0
tp4229
a(I0
I522
I1
tp4230
a(I0
I518
I0
tp4231
a(I0
I518
I0
tp4232
a(I0
I518
I0
tp4233
a(I0
I518
I0
tp4234
a(I0
I518
I0
tp4235
a(I0
I518
I0
tp4236
a(I0
I518
I0
tp4237
a(I0
I518
I0
tp4238
a(I0
I518
I0
tp4239
a(I0
I518
I0
tp4240
a(I0
I518
I0
tp4241
a(I0
I518
I0
tp4242
a(I0
I518
I0
tp4243
a(I0
I518
I0
tp4244
a(I0
I518
I0
tp4245
a(I0
I518
I0
tp4246
a(I0
I518
I0
tp4247
a(I0
I518
I0
tp4248
a(I0
I518
I0
tp4249
a(I0
I518
I0
tp4250
a(I0
I518
I0
tp4251
a(I0
I518
I0
tp4252
a(I0
I518
I0
tp4253
a(I0
I518
I0
tp4254
a(I0
I518
I0
tp4255
a(I0
I518
I0
tp4256
a(I0
I518
I0
tp4257
a(I0
I518
I0
tp4258
a(I0
I518
I0
tp4259
a(I0
I518
I0
tp4260
a(I0
I518
I0
tp4261
a(I0
I518
I0
tp4262
a(I0
I518
I0
tp4263
a(I0
I518
I0
tp4264
a(I0
I518
I0
tp4265
a(I0
I518
I0
tp4266
a(I0
I518
I0
tp4267
a(I0
I518
I0
tp4268
a(I0
I518
I0
tp4269
a(I0
I524
I1
tp4270
a(I0
I518
I0
tp4271
a(I0
I518
I0
tp4272
a(I0
I518
I0
tp4273
a(I0
I518
I0
tp4274
a(I0
I518
I0
tp4275
a(I0
I518
I0
tp4276
a(I0
I518
I0
tp4277
a(I0
I518
I0
tp4278
a(I0
I521
I1
tp4279
a(I0
I518
I0
tp4280
a(I0
I518
I0
tp4281
a(I0
I518
I0
tp4282
a(I0
I518
I0
tp4283
a(I0
I518
I0
tp4284
a(I0
I518
I0
tp4285
a(I0
I518
I0
tp4286
a(I0
I518
I0
tp4287
a(I0
I464
I-1
tp4288
a(I0
I398
I-1
tp4289
a(I0
I338
I-1
tp4290
a(I0
I272
I-1
tp4291
a(I0
I212
I-1
tp4292
a(I0
I146
I-1
tp4293
a(I0
I128
I-1
tp4294
a(I0
I133
I0
tp4295
a(I0
I133
I0
tp4296
a(I0
I157
I1
tp4297
a(I0
I223
I1
tp4298
a(I0
I283
I1
tp4299
a(I0
I349
I1
tp4300
a(I0
I409
I1
tp4301
a(I0
I475
I1
tp4302
a(I0
I521
I1
tp4303
a(I0
I524
I1
tp4304
a(I0
I518
I0
tp4305
a(I0
I518
I0
tp4306
a(I0
I518
I0
tp4307
a(I0
I524
I1
tp4308
a(I0
I520
I1
tp4309
a(I0
I518
I0
tp4310
a(I0
I518
I0
tp4311
a(I0
I518
I0
tp4312
a(I0
I518
I0
tp4313
a(I0
I518
I0
tp4314
a(I0
I518
I0
tp4315
a(I0
I518
I0
tp4316
a(I0
I488
I-1
tp4317
a(I0
I422
I-1
tp4318
a(I0
I362
I-1
tp4319
a(I0
I296
I-1
tp4320
a(I0
I236
I-1
tp4321
a(I0
I170
I-1
tp4322
a(I0
I131
I-1
tp4323
a(I0
I133
I0
tp4324
a(I0
I133
I0
tp4325
a(I0
I133
I0
tp4326
a(I0
I193
I1
tp4327
a(I0
I253
I1
tp4328
a(I0
I319
I1
tp4329
a(I0
I379
I1
tp4330
a(I0
I445
I1
tp4331
a(I0
I505
I1
tp4332
a(I0
I522
I1
tp4333
a(I0
I519
I1
tp4334
a(I0
I518
I0
tp4335
a(I0
I518
I0
tp4336
a(I0
I518
I0
tp4337
a(I0
I523
I1
tp4338
a(I0
I520
I0
tp4339
a(I0
I518
I0
tp4340
a(I0
I518
I0
tp4341
a(I0
I518
I0
tp4342
a(I0
I518
I0
tp4343
a(I0
I518
I0
tp4344
a(I0
I518
I0
tp4345
a(I0
I518
I0
tp4346
a(I0
I518
I0
tp4347
a(I0
I522
I1
tp4348
a(I0
I518
I0
tp4349
a(I0
I518
I0
tp4350
a(I0
I518
I0
tp4351
a(I0
I518
I0
tp4352
a(I0
I518
I0
tp4353
a(I0
I518
I0
tp4354
a(I0
I518
I0
tp4355
a(I0
I518
I0
tp4356
a(I0
I518
I0
tp4357
a(I0
I518
I0
tp4358
a(I0
I518
I0
tp4359
a(I0
I518
I0
tp4360
a(I0
I518
I0
tp4361
a(I0
I518
I0
tp4362
a(I0
I518
I0
tp4363
a(I0
I518
I0
tp4364
a(I0
I518
I0
tp4365
a(I0
I518
I0
tp4366
a(I0
I518
I0
tp4367
a(I0
I520
I1
tp4368
a(I0
I518
I0
tp4369
a(I0
I518
I0
tp4370
a(I0
I518
I0
tp4371
a(I0
I518
I0
tp4372
a(I0
I518
I0
tp4373
a(I0
I518
I0
tp4374
a(I0
I518
I0
tp4375
a(I0
I518
I0
tp4376
a(I0
I518
I0
tp4377
a(I0
I518
I1
tp4378
a(I0
I518
I0
tp4379
a(I0
I518
I0
tp4380
a(I0
I518
I0
tp4381
a(I0
I518
I0
tp4382
a(I0
I518
I0
tp4383
a(I0
I518
I0
tp4384
a(I0
I518
I0
tp4385
a(I0
I512
I-1
tp4386
a(I0
I452
I-1
tp4387
a(I0
I386
I-1
tp4388
a(I0
I326
I-1
tp4389
a(I0
I260
I-1
tp4390
a(I0
I194
I-1
tp4391
a(I0
I134
I-1
tp4392
a(I0
I131
I-1
tp4393
a(I0
I133
I0
tp4394
a(I0
I133
I0
tp4395
a(I0
I133
I0
tp4396
a(I0
I133
I0
tp4397
a(I0
I133
I0
tp4398
aa.